; ModuleID = 'ezu5jqidyjsif5nhwuviuvkgj'
source_filename = "ezu5jqidyjsif5nhwuviuvkgj"
target datalayout = "e-m:w-p270:32:32-p271:32:32-p272:64:64-i64:64-i128:128-f80:128-n8:16:32:64-S128"
target triple = "x86_64-pc-windows-gnu"

%"core::fmt::rt::Argument<'_>" = type { %"core::fmt::rt::ArgumentType<'_>" }
%"core::fmt::rt::ArgumentType<'_>" = type { ptr, [1 x i64] }

@anon.284cfee5410ba401389a9c2a4c0ae086.0 = private unnamed_addr constant <{ [8 x i8], [4 x i8], [4 x i8] }> <{ [8 x i8] undef, [4 x i8] c"\00\00\11\00", [4 x i8] undef }>, align 8
@alloc_f78318d482672c60ecba223518171019 = private unnamed_addr constant [81 x i8] c"/rustc/29483883eed69d5fb4db01964cdf2af4d86e9cb2\\library\\core\\src\\char\\methods.rs\00", align 1
@alloc_63f19914cfab9058f248e327bc817980 = private unnamed_addr constant <{ ptr, [16 x i8] }> <{ ptr @alloc_f78318d482672c60ecba223518171019, [16 x i8] c"Q\00\00\00\00\00\00\00\EF\00\00\00\12\00\00\00" }>, align 8
@anon.284cfee5410ba401389a9c2a4c0ae086.1 = private unnamed_addr constant [24 x i8] c"\00\00\00\00\00\00\00\00\08\00\00\00\00\00\00\00\00\00\00\00\00\00\00\00", align 8
@alloc_3885fdfa2dd91880e12a26f34be79091 = private unnamed_addr constant [90 x i8] c"/rustc/29483883eed69d5fb4db01964cdf2af4d86e9cb2\\library\\core\\src\\iter\\adapters\\step_by.rs\00", align 1
@alloc_5b2c111f186557f404c199028cd23bda = private unnamed_addr constant <{ ptr, [16 x i8] }> <{ ptr @alloc_3885fdfa2dd91880e12a26f34be79091, [16 x i8] c"Z\00\00\00\00\00\00\008\02\00\00\01\00\00\00" }>, align 8
@alloc_c2bb4800325d1175d7828886e2f1bcca = private unnamed_addr constant <{ ptr, [16 x i8] }> <{ ptr @alloc_3885fdfa2dd91880e12a26f34be79091, [16 x i8] c"Z\00\00\00\00\00\00\00.\00\00\00\12\00\00\00" }>, align 8
@anon.284cfee5410ba401389a9c2a4c0ae086.2 = private unnamed_addr constant <{ [8 x i8], [8 x i8] }> <{ [8 x i8] zeroinitializer, [8 x i8] undef }>, align 8
@alloc_f27c91ec91c5a0660ba00b4219598bd0 = private unnamed_addr constant [16 x i8] c"0123456789abcdef", align 1
@anon.284cfee5410ba401389a9c2a4c0ae086.3 = private unnamed_addr constant <{ [4 x i8], [4 x i8] }> <{ [4 x i8] zeroinitializer, [4 x i8] undef }>, align 4
@alloc_b053943b0cb7676c01cd24a4a81e67c3 = private unnamed_addr constant [91 x i8] c"/rustc/29483883eed69d5fb4db01964cdf2af4d86e9cb2\\library\\std\\src\\io\\error\\repr_bitpacked.rs\00", align 1
@alloc_eec8bab14789dcbf11d2abb0f927edcd = private unnamed_addr constant <{ ptr, [16 x i8] }> <{ ptr @alloc_b053943b0cb7676c01cd24a4a81e67c3, [16 x i8] c"[\00\00\00\00\00\00\00\11\01\00\00\1A\00\00\00" }>, align 8
@alloc_a500d906b91607583596fa15e63c2ada = private unnamed_addr constant [40 x i8] c"internal error: entered unreachable code", align 1
@alloc_5e8372a7635a49c7175a6a37f8960d30 = private unnamed_addr constant <{ ptr, [16 x i8] }> <{ ptr @alloc_b053943b0cb7676c01cd24a4a81e67c3, [16 x i8] c"[\00\00\00\00\00\00\00\22\01\00\00\0D\00\00\00" }>, align 8
@vtable.0 = private constant <{ [24 x i8], ptr, ptr, ptr }> <{ [24 x i8] c"\00\00\00\00\00\00\00\00\08\00\00\00\00\00\00\00\08\00\00\00\00\00\00\00", ptr @"_ZN4core3ops8function6FnOnce40call_once$u7b$$u7b$vtable.shim$u7d$$u7d$17ha58566592250fc49E", ptr @"_ZN3std2rt10lang_start28_$u7b$$u7b$closure$u7d$$u7d$17h2a5035041e038e37E", ptr @"_ZN3std2rt10lang_start28_$u7b$$u7b$closure$u7d$$u7d$17h2a5035041e038e37E" }>, align 8, !dbg !0
@anon.284cfee5410ba401389a9c2a4c0ae086.4 = private unnamed_addr constant <{ [1 x i8], [1 x i8] }> <{ [1 x i8] zeroinitializer, [1 x i8] undef }>, align 1
@alloc_448ed6698bdbd0ecc6ff92b68bb6342a = private unnamed_addr constant [76 x i8] c"/rustc/29483883eed69d5fb4db01964cdf2af4d86e9cb2\\library\\core\\src\\num\\mod.rs\00", align 1
@alloc_26b31bbcb16fd913b1c23735e62aee9d = private unnamed_addr constant <{ ptr, [16 x i8] }> <{ ptr @alloc_448ed6698bdbd0ecc6ff92b68bb6342a, [16 x i8] c"L\00\00\00\00\00\00\00^\06\00\00\01\00\00\00" }>, align 8
@alloc_d7e165a166a72c56d1d4a46283bb3267 = private unnamed_addr constant [209 x i8] c"unsafe precondition(s) violated: NonZero::new_unchecked requires the argument to be non-zero\0A\0AThis indicates a bug in the program. This Undefined Behavior check is optional, and cannot be relied on for safety.", align 1
@alloc_560a59ed819b9d9a5841f6e731c4c8e5 = private unnamed_addr constant [210 x i8] c"unsafe precondition(s) violated: NonNull::new_unchecked requires that the pointer is non-null\0A\0AThis indicates a bug in the program. This Undefined Behavior check is optional, and cannot be relied on for safety.", align 1
@alloc_73a3d72f46cf1f8bb519809e921ee55e = private unnamed_addr constant [84 x i8] c"/rustc/29483883eed69d5fb4db01964cdf2af4d86e9cb2\\library\\core\\src\\str\\validations.rs\00", align 1
@alloc_c71e94473cb863e1e8af4c9a15838435 = private unnamed_addr constant <{ ptr, [16 x i8] }> <{ ptr @alloc_73a3d72f46cf1f8bb519809e921ee55e, [16 x i8] c"T\00\00\00\00\00\00\00]\00\00\00)\00\00\00" }>, align 8
@alloc_ef40dacc154336f4466375deffade821 = private unnamed_addr constant <{ ptr, [16 x i8] }> <{ ptr @alloc_73a3d72f46cf1f8bb519809e921ee55e, [16 x i8] c"T\00\00\00\00\00\00\00b\00\00\00-\00\00\00" }>, align 8
@alloc_b83c0db509b95da8bedc31ee2fcabc45 = private unnamed_addr constant <{ ptr, [16 x i8] }> <{ ptr @alloc_73a3d72f46cf1f8bb519809e921ee55e, [16 x i8] c"T\00\00\00\00\00\00\00g\00\00\001\00\00\00" }>, align 8
@alloc_e91ac4d0b2f82da0944cfa4242ade76c = private unnamed_addr constant [76 x i8] c"/rustc/29483883eed69d5fb4db01964cdf2af4d86e9cb2\\library\\core\\src\\str\\mod.rs\00", align 1
@alloc_4d894ffb82954e545e1431d1150f77d0 = private unnamed_addr constant <{ ptr, [16 x i8] }> <{ ptr @alloc_e91ac4d0b2f82da0944cfa4242ade76c, [16 x i8] c"L\00\00\00\00\00\00\00\95\02\00\00\16\00\00\00" }>, align 8
@alloc_91f2a00ff2cd9cdc4bb205a66832e2bb = private unnamed_addr constant [219 x i8] c"unsafe precondition(s) violated: str::get_unchecked requires that the range is within the string slice\0A\0AThis indicates a bug in the program. This Undefined Behavior check is optional, and cannot be relied on for safety.", align 1
@alloc_d50327e237e44874813195fb45f3360f = private unnamed_addr constant <{ ptr, [16 x i8] }> <{ ptr @alloc_e91ac4d0b2f82da0944cfa4242ade76c, [16 x i8] c"L\00\00\00\00\00\00\00~\01\00\00\0D\00\00\00" }>, align 8
@alloc_5132231c75a51c20cd62483f79b7b023 = private unnamed_addr constant [79 x i8] c"/rustc/29483883eed69d5fb4db01964cdf2af4d86e9cb2\\library\\core\\src\\str\\traits.rs\00", align 1
@alloc_b03dc811e1bc916f6010775018c87853 = private unnamed_addr constant <{ ptr, [16 x i8] }> <{ ptr @alloc_5132231c75a51c20cd62483f79b7b023, [16 x i8] c"O\00\00\00\00\00\00\00\AA\00\00\00\22\00\00\00" }>, align 8
@alloc_4dc07e69e5d34e9d1484dfbbef0bb9b1 = private unnamed_addr constant [174 x i8] c"unsafe precondition(s) violated: invalid value for `char`\0A\0AThis indicates a bug in the program. This Undefined Behavior check is optional, and cannot be relied on for safety.", align 1
@alloc_78b6a49e36fe808e0ef950c2feb9fafc = private unnamed_addr constant [71 x i8] c"to_digit: invalid radix -- radix must be in the range 2 to 36 inclusive", align 1
@alloc_708eb9f2492b697e0d761b647be5d46c = private unnamed_addr constant <{ ptr, [8 x i8] }> <{ ptr @alloc_78b6a49e36fe808e0ef950c2feb9fafc, [8 x i8] c"G\00\00\00\00\00\00\00" }>, align 8
@alloc_d64897e134e0ace99c1669fbf38164f9 = private unnamed_addr constant <{ ptr, [16 x i8] }> <{ ptr @alloc_f78318d482672c60ecba223518171019, [16 x i8] c"Q\00\00\00\00\00\00\00\93\01\00\00\09\00\00\00" }>, align 8
@alloc_75fb06c2453febd814e73f5f2e72ae38 = private unnamed_addr constant [199 x i8] c"unsafe precondition(s) violated: hint::unreachable_unchecked must never be reached\0A\0AThis indicates a bug in the program. This Undefined Behavior check is optional, and cannot be relied on for safety.", align 1
@alloc_0506e44aa4e45dd176b6dc74ac36ab3b = private unnamed_addr constant [20 x i8] c"Malformed size_hint ", align 1
@alloc_4f957698b52dbe11fa953a525a47908f = private unnamed_addr constant <{ ptr, [8 x i8] }> <{ ptr @alloc_0506e44aa4e45dd176b6dc74ac36ab3b, [8 x i8] c"\14\00\00\00\00\00\00\00" }>, align 8
@alloc_4aead6e2018a46d0df208d5729447de7 = private unnamed_addr constant [27 x i8] c"assertion failed: step != 0", align 1
@alloc_5ce1043ccea83a102e32bae087dcaf16 = private unnamed_addr constant <{ ptr, [16 x i8] }> <{ ptr @alloc_3885fdfa2dd91880e12a26f34be79091, [16 x i8] c"Z\00\00\00\00\00\00\00#\00\00\00\09\00\00\00" }>, align 8
@alloc_1be5ea12ba708d9a11b6e93a7d387a75 = private unnamed_addr constant [281 x i8] c"unsafe precondition(s) violated: Layout::from_size_align_unchecked requires that align is a power of 2 and the rounded-up allocation size does not exceed isize::MAX\0A\0AThis indicates a bug in the program. This Undefined Behavior check is optional, and cannot be relied on for safety.", align 1
@alloc_a28e8c8fd5088943a8b5d44af697ff83 = private unnamed_addr constant [279 x i8] c"unsafe precondition(s) violated: slice::from_raw_parts requires the pointer to be aligned and non-null, and the total size of the slice not to exceed `isize::MAX`\0A\0AThis indicates a bug in the program. This Undefined Behavior check is optional, and cannot be relied on for safety.", align 1
@alloc_fad0cd83b7d1858a846a172eb260e593 = private unnamed_addr constant [42 x i8] c"is_aligned_to: align is not a power-of-two", align 1
@alloc_e92e94d0ff530782b571cfd99ec66aef = private unnamed_addr constant <{ ptr, [8 x i8] }> <{ ptr @alloc_fad0cd83b7d1858a846a172eb260e593, [8 x i8] c"*\00\00\00\00\00\00\00" }>, align 8
@alloc_206f560cdf1f7e2546c4c0171b4b9b6e = private unnamed_addr constant [78 x i8] c"/rustc/29483883eed69d5fb4db01964cdf2af4d86e9cb2\\library\\core\\src\\ub_checks.rs\00", align 1
@alloc_894f5487c139c7273933c82c8b5828a8 = private unnamed_addr constant <{ ptr, [16 x i8] }> <{ ptr @alloc_206f560cdf1f7e2546c4c0171b4b9b6e, [16 x i8] c"N\00\00\00\00\00\00\00\88\00\00\006\00\00\00" }>, align 8
@alloc_3236b51b3c408fc8ee14f71c3bbee7d9 = private unnamed_addr constant [82 x i8] c"/rustc/29483883eed69d5fb4db01964cdf2af4d86e9cb2\\library\\core\\src\\ptr\\const_ptr.rs\00", align 1
@alloc_73c96d63ab00c43d552394ddc40e7dcf = private unnamed_addr constant <{ ptr, [16 x i8] }> <{ ptr @alloc_3236b51b3c408fc8ee14f71c3bbee7d9, [16 x i8] c"R\00\00\00\00\00\00\00\92\05\00\00\0D\00\00\00" }>, align 8
@_ZN4core7unicode12unicode_data11white_space14WHITESPACE_MAP17hb8e2f8fd6910b1d1E = external dllimport global [256 x i8]
@alloc_6b338c3d563c75b06fed08146f09726a = private unnamed_addr constant [89 x i8] c"/rustc/29483883eed69d5fb4db01964cdf2af4d86e9cb2\\library\\core\\src\\unicode\\unicode_data.rs\00", align 1
@alloc_8819fb4cd4ece387a35f2db602d2d32c = private unnamed_addr constant <{ ptr, [16 x i8] }> <{ ptr @alloc_6b338c3d563c75b06fed08146f09726a, [16 x i8] c"Y\00\00\00\00\00\00\00\D8\02\00\00\12\00\00\00" }>, align 8
@alloc_6daee2d128c05c46d3fd67bc526326f8 = private unnamed_addr constant <{ ptr, [16 x i8] }> <{ ptr @alloc_6b338c3d563c75b06fed08146f09726a, [16 x i8] c"Y\00\00\00\00\00\00\00\DA\02\00\00\13\00\00\00" }>, align 8
@alloc_ad3d5fd60ce0f230118f822c87da6366 = private unnamed_addr constant [77 x i8] c"/rustc/29483883eed69d5fb4db01964cdf2af4d86e9cb2\\library\\alloc\\src\\vec\\mod.rs\00", align 1
@alloc_c873a334622fd250a7b4fae5408dd53b = private unnamed_addr constant <{ ptr, [16 x i8] }> <{ ptr @alloc_ad3d5fd60ce0f230118f822c87da6366, [16 x i8] c"M\00\00\00\00\00\00\00`\06\00\00\12\00\00\00" }>, align 8
@alloc_38b7fde96b4b599c18f5818742046b8e = private unnamed_addr constant [81 x i8] c"/rustc/29483883eed69d5fb4db01964cdf2af4d86e9cb2\\library\\core\\src\\alloc\\layout.rs\00", align 1
@alloc_d87b252093cf3500d94c161216a680a5 = private unnamed_addr constant <{ ptr, [16 x i8] }> <{ ptr @alloc_38b7fde96b4b599c18f5818742046b8e, [16 x i8] c"Q\00\00\00\00\00\00\00\E0\00\00\00\12\00\00\00" }>, align 8
@alloc_f93af99aed9554a8a3c82e5d4e8f3fce = private unnamed_addr constant [79 x i8] c"/rustc/29483883eed69d5fb4db01964cdf2af4d86e9cb2\\library\\core\\src\\ptr\\unique.rs\00", align 1
@alloc_626c57d38998021792ad60ffb30d0d0a = private unnamed_addr constant <{ ptr, [16 x i8] }> <{ ptr @alloc_f93af99aed9554a8a3c82e5d4e8f3fce, [16 x i8] c"O\00\00\00\00\00\00\00Z\00\00\00$\00\00\00" }>, align 8
@alloc_d18fb8cf1209cbe87459f8f714d25840 = private unnamed_addr constant [7 x i8] c"Error: ", align 1
@alloc_49a1e817e911805af64bbc7efb390101 = private unnamed_addr constant [1 x i8] c"\0A", align 1
@alloc_65a14c287e0a73af54985a3db7645c00 = private unnamed_addr constant <{ ptr, [8 x i8], ptr, [8 x i8] }> <{ ptr @alloc_d18fb8cf1209cbe87459f8f714d25840, [8 x i8] c"\07\00\00\00\00\00\00\00", ptr @alloc_49a1e817e911805af64bbc7efb390101, [8 x i8] c"\01\00\00\00\00\00\00\00" }>, align 8
@alloc_ec2cc09acab51e8dbf2dde05969475fc = private unnamed_addr constant [76 x i8] c"/rustc/29483883eed69d5fb4db01964cdf2af4d86e9cb2\\library\\alloc\\src\\string.rs\00", align 1
@alloc_832b8914dc388f5dd3b1eba1dee16c71 = private unnamed_addr constant <{ ptr, [16 x i8] }> <{ ptr @alloc_ec2cc09acab51e8dbf2dde05969475fc, [16 x i8] c"L\00\00\00\00\00\00\00f\09\00\00\0E\00\00\00" }>, align 8
@alloc_0f1fa20dc667bbd16a62d9266837ce60 = private unnamed_addr constant <{ ptr, [16 x i8] }> <{ ptr @alloc_ec2cc09acab51e8dbf2dde05969475fc, [16 x i8] c"L\00\00\00\00\00\00\00g\09\00\00)\00\00\00" }>, align 8
@alloc_27e20ab4610c44e7cd1ed777571a5eaa = private unnamed_addr constant [4 x i8] c"flag", align 1
@alloc_c0fd11ecfdb0fffc5d230f0fd90b582b = private unnamed_addr constant [6 x i8] c"flag: ", align 1
@alloc_3f59101570ca22b4b20bc5abbd2ce24e = private unnamed_addr constant <{ ptr, [8 x i8], ptr, [8 x i8] }> <{ ptr @alloc_c0fd11ecfdb0fffc5d230f0fd90b582b, [8 x i8] c"\06\00\00\00\00\00\00\00", ptr @alloc_49a1e817e911805af64bbc7efb390101, [8 x i8] c"\01\00\00\00\00\00\00\00" }>, align 8
@alloc_3a1600a12db0e29984b0f4895b52f244 = private unnamed_addr constant [8 x i8] c"result: ", align 1
@alloc_35a737c453990c91dd7e6a47d8a8230a = private unnamed_addr constant <{ ptr, [8 x i8], ptr, [8 x i8] }> <{ ptr @alloc_3a1600a12db0e29984b0f4895b52f244, [8 x i8] c"\08\00\00\00\00\00\00\00", ptr @alloc_49a1e817e911805af64bbc7efb390101, [8 x i8] c"\01\00\00\00\00\00\00\00" }>, align 8
@alloc_8b8509da6462255e15dc021e23f033e9 = private unnamed_addr constant [9 x i8] c"chall.rs\00", align 1
@alloc_0c242abc8fd6829a11ac8eb7eb00e6a9 = private unnamed_addr constant <{ ptr, [16 x i8] }> <{ ptr @alloc_8b8509da6462255e15dc021e23f033e9, [16 x i8] c"\09\00\00\00\00\00\00\00\10\00\00\00'\00\00\00" }>, align 8
@alloc_fbb4dd7d6c106dc24f5a8ccac47b26a7 = private unnamed_addr constant <{ ptr, [16 x i8] }> <{ ptr @alloc_8b8509da6462255e15dc021e23f033e9, [16 x i8] c"\09\00\00\00\00\00\00\00\10\00\00\00#\00\00\00" }>, align 8
@alloc_9c953634f6a50cfef190a8efa2c2b8ef = private unnamed_addr constant <{ ptr, [16 x i8] }> <{ ptr @alloc_8b8509da6462255e15dc021e23f033e9, [16 x i8] c"\09\00\00\00\00\00\00\00\12\00\00\00\1D\00\00\00" }>, align 8
@alloc_a57f37c34c99c7348d3a167e3883eb96 = private unnamed_addr constant <{ ptr, [16 x i8] }> <{ ptr @alloc_8b8509da6462255e15dc021e23f033e9, [16 x i8] c"\09\00\00\00\00\00\00\00\08\00\00\00\05\00\00\00" }>, align 8
@alloc_a7459df6038d74c75b4e78fe452ee672 = private unnamed_addr constant <{ ptr, [16 x i8] }> <{ ptr @alloc_8b8509da6462255e15dc021e23f033e9, [16 x i8] c"\09\00\00\00\00\00\00\00\06\00\00\00\14\00\00\00" }>, align 8

; <core::str::iter::CharIndices as core::iter::traits::double_ended::DoubleEndedIterator>::next_back
; Function Attrs: inlinehint uwtable
define internal { i64, i32 } @"_ZN102_$LT$core..str..iter..CharIndices$u20$as$u20$core..iter..traits..double_ended..DoubleEndedIterator$GT$9next_back17h1b6f8f906ea30f3cE"(ptr align 8 %self) unnamed_addr #0 !dbg !247 {
start:
  %index.dbg.spill = alloca [8 x i8], align 8
  %end.dbg.spill = alloca [8 x i8], align 8
  %self.dbg.spill8 = alloca [8 x i8], align 8
  %_25.dbg.spill = alloca [8 x i8], align 8
  %_24.dbg.spill = alloca [8 x i8], align 8
  %x.dbg.spill6 = alloca [4 x i8], align 4
  %x.dbg.spill = alloca [4 x i8], align 4
  %self.dbg.spill4 = alloca [8 x i8], align 8
  %f.dbg.spill = alloca [0 x i8], align 1
  %self.dbg.spill = alloca [8 x i8], align 8
  %f3 = alloca [8 x i8], align 8
  %f = alloca [8 x i8], align 8
  %self2 = alloca [8 x i8], align 4
  %_5 = alloca [8 x i8], align 8
  %_4 = alloca [8 x i8], align 8
  %self1 = alloca [4 x i8], align 4
  %_0 = alloca [16 x i8], align 8
  store ptr %self, ptr %self.dbg.spill, align 8
    #dbg_declare(ptr %self.dbg.spill, !300, !DIExpression(), !301)
    #dbg_declare(ptr %self1, !302, !DIExpression(), !335)
    #dbg_declare(ptr %self2, !337, !DIExpression(), !365)
    #dbg_declare(ptr %f, !332, !DIExpression(DW_OP_LLVM_fragment, 0, 64), !374)
    #dbg_declare(ptr %f3, !332, !DIExpression(DW_OP_LLVM_fragment, 64, 64), !374)
    #dbg_declare(ptr %f.dbg.spill, !362, !DIExpression(), !375)
  store ptr %self, ptr %self.dbg.spill4, align 8, !dbg !376
    #dbg_declare(ptr %self.dbg.spill4, !372, !DIExpression(), !377)
; call core::str::validations::next_code_point_reverse
  %0 = call { i32, i32 } @_ZN4core3str11validations23next_code_point_reverse17h772f1dbf179dedd9E(ptr align 8 %self), !dbg !378
  %1 = extractvalue { i32, i32 } %0, 0, !dbg !378
  %2 = extractvalue { i32, i32 } %0, 1, !dbg !378
  store i32 %1, ptr %self2, align 4, !dbg !378
  %3 = getelementptr inbounds i8, ptr %self2, i64 4, !dbg !378
  store i32 %2, ptr %3, align 4, !dbg !378
  %4 = load i32, ptr %self2, align 4, !dbg !379
  %5 = getelementptr inbounds i8, ptr %self2, i64 4, !dbg !379
  %6 = load i32, ptr %5, align 4, !dbg !379
  %_8 = zext i32 %4 to i64, !dbg !379
  %7 = trunc nuw i64 %_8 to i1, !dbg !380
  br i1 %7, label %bb4, label %bb3, !dbg !380

bb4:                                              ; preds = %start
  %8 = getelementptr inbounds i8, ptr %self2, i64 4, !dbg !381
  %x = load i32, ptr %8, align 4, !dbg !381
  store i32 %x, ptr %x.dbg.spill, align 4, !dbg !381
    #dbg_declare(ptr %x.dbg.spill, !363, !DIExpression(), !382)
    #dbg_declare(ptr %x.dbg.spill, !383, !DIExpression(), !388)
    #dbg_declare(ptr %x.dbg.spill, !390, !DIExpression(), !399)
    #dbg_declare(ptr %x.dbg.spill, !401, !DIExpression(), !420)
  br label %bb5, !dbg !422

bb3:                                              ; preds = %start
  store i32 1114112, ptr %self1, align 4, !dbg !425
  %9 = getelementptr inbounds i8, ptr %self, i64 16, !dbg !426
  store ptr %9, ptr %_4, align 8, !dbg !426
  store ptr %self, ptr %_5, align 8, !dbg !426
  %10 = load ptr, ptr %_4, align 8, !dbg !426
  store ptr %10, ptr %f, align 8, !dbg !426
  %11 = load ptr, ptr %_5, align 8, !dbg !426
  store ptr %11, ptr %f3, align 8, !dbg !426
  %12 = load i64, ptr @anon.284cfee5410ba401389a9c2a4c0ae086.0, align 8, !dbg !427
  %13 = load i32, ptr getelementptr inbounds (i8, ptr @anon.284cfee5410ba401389a9c2a4c0ae086.0, i64 8), align 8, !dbg !427
  store i64 %12, ptr %_0, align 8, !dbg !427
  %14 = getelementptr inbounds i8, ptr %_0, i64 8, !dbg !427
  store i32 %13, ptr %14, align 8, !dbg !427
  br label %bb7, !dbg !428

bb7:                                              ; preds = %bb6, %bb3
  %15 = load i64, ptr %_0, align 8, !dbg !429
  %16 = getelementptr inbounds i8, ptr %_0, i64 8, !dbg !429
  %17 = load i32, ptr %16, align 8, !dbg !429
  %18 = insertvalue { i64, i32 } poison, i64 %15, 0, !dbg !429
  %19 = insertvalue { i64, i32 } %18, i32 %17, 1, !dbg !429
  ret { i64, i32 } %19, !dbg !429

bb5:                                              ; preds = %bb4
; call core::char::convert::from_u32_unchecked::precondition_check
  call void @_ZN4core4char7convert18from_u32_unchecked18precondition_check17he0f674290b0eded6E(i32 %x, ptr align 8 @alloc_63f19914cfab9058f248e327bc817980) #14, !dbg !430
  br label %bb6, !dbg !430

bb6:                                              ; preds = %bb5
  store i32 %x, ptr %self1, align 4, !dbg !431
  %20 = getelementptr inbounds i8, ptr %self, i64 16, !dbg !426
  store ptr %20, ptr %_4, align 8, !dbg !426
  store ptr %self, ptr %_5, align 8, !dbg !426
  %21 = load ptr, ptr %_4, align 8, !dbg !426
  store ptr %21, ptr %f, align 8, !dbg !426
  %22 = load ptr, ptr %_5, align 8, !dbg !426
  store ptr %22, ptr %f3, align 8, !dbg !426
  %x5 = load i32, ptr %self1, align 4, !dbg !432
  store i32 %x5, ptr %x.dbg.spill6, align 4, !dbg !432
    #dbg_declare(ptr %x.dbg.spill6, !333, !DIExpression(), !433)
    #dbg_declare(ptr %x.dbg.spill6, !434, !DIExpression(), !443)
  %_24 = load ptr, ptr %_4, align 8, !dbg !446
  store ptr %_24, ptr %_24.dbg.spill, align 8, !dbg !446
    #dbg_declare(ptr %_24.dbg.spill, !439, !DIExpression(DW_OP_deref), !447)
  %_25 = load ptr, ptr %_5, align 8, !dbg !446
  store ptr %_25, ptr %_25.dbg.spill, align 8, !dbg !446
    #dbg_declare(ptr %_25.dbg.spill, !440, !DIExpression(DW_OP_deref), !447)
  %23 = load ptr, ptr %_4, align 8, !dbg !448
  %_16 = load i64, ptr %23, align 8, !dbg !448
  %self7 = load ptr, ptr %_5, align 8, !dbg !449
  store ptr %self7, ptr %self.dbg.spill8, align 8, !dbg !449
    #dbg_declare(ptr %self.dbg.spill8, !450, !DIExpression(), !461)
  %24 = load ptr, ptr %_5, align 8, !dbg !463
  %25 = getelementptr inbounds i8, ptr %24, i64 8, !dbg !463
  %_22 = load ptr, ptr %25, align 8, !dbg !463
  store ptr %_22, ptr %end.dbg.spill, align 8, !dbg !464
    #dbg_declare(ptr %end.dbg.spill, !459, !DIExpression(), !465)
  %26 = load ptr, ptr %_5, align 8, !dbg !466
  %_23 = load ptr, ptr %26, align 8, !dbg !466
; call core::ptr::non_null::NonNull<T>::offset_from_unsigned
  %_17 = call i64 @"_ZN4core3ptr8non_null16NonNull$LT$T$GT$20offset_from_unsigned17hb9b81276d817c1cfE"(ptr %_22, ptr %_23), !dbg !467
  %index = add i64 %_16, %_17, !dbg !448
  store i64 %index, ptr %index.dbg.spill, align 8, !dbg !448
    #dbg_declare(ptr %index.dbg.spill, !441, !DIExpression(), !468)
  store i64 %index, ptr %_0, align 8, !dbg !469
  %27 = getelementptr inbounds i8, ptr %_0, i64 8, !dbg !469
  store i32 %x5, ptr %27, align 8, !dbg !469
  br label %bb7, !dbg !470

bb2:                                              ; No predecessors!
  unreachable, !dbg !471
}

; <core::str::pattern::MultiCharEqSearcher<C> as core::str::pattern::ReverseSearcher>::next_back
; Function Attrs: inlinehint uwtable
define internal void @"_ZN104_$LT$core..str..pattern..MultiCharEqSearcher$LT$C$GT$$u20$as$u20$core..str..pattern..ReverseSearcher$GT$9next_back17haf7916a9487c0a4eE"(ptr sret([24 x i8]) align 8 %_0, ptr align 8 %self) unnamed_addr #0 !dbg !474 {
start:
  %char_len.dbg.spill = alloca [8 x i8], align 8
  %len.dbg.spill = alloca [8 x i8], align 8
  %end.dbg.spill3 = alloca [8 x i8], align 8
  %self.dbg.spill2 = alloca [8 x i8], align 8
  %c.dbg.spill = alloca [4 x i8], align 4
  %i.dbg.spill = alloca [8 x i8], align 8
  %pre_len.dbg.spill = alloca [8 x i8], align 8
  %end.dbg.spill = alloca [8 x i8], align 8
  %self.dbg.spill1 = alloca [8 x i8], align 8
  %s.dbg.spill = alloca [8 x i8], align 8
  %self.dbg.spill = alloca [8 x i8], align 8
  %_5 = alloca [16 x i8], align 8
  store ptr %self, ptr %self.dbg.spill, align 8
    #dbg_declare(ptr %self.dbg.spill, !510, !DIExpression(), !522)
  %s = getelementptr inbounds i8, ptr %self, i64 16, !dbg !523
  store ptr %s, ptr %s.dbg.spill, align 8, !dbg !523
    #dbg_declare(ptr %s.dbg.spill, !511, !DIExpression(), !524)
  store ptr %s, ptr %self.dbg.spill1, align 8, !dbg !525
    #dbg_declare(ptr %self.dbg.spill1, !526, !DIExpression(), !537)
  %0 = getelementptr inbounds i8, ptr %s, i64 8, !dbg !539
  %_19 = load ptr, ptr %0, align 8, !dbg !539
  store ptr %_19, ptr %end.dbg.spill, align 8, !dbg !540
    #dbg_declare(ptr %end.dbg.spill, !531, !DIExpression(), !541)
  %_20 = load ptr, ptr %s, align 8, !dbg !542
; call core::ptr::non_null::NonNull<T>::offset_from_unsigned
  %pre_len = call i64 @"_ZN4core3ptr8non_null16NonNull$LT$T$GT$20offset_from_unsigned17hb9b81276d817c1cfE"(ptr %_19, ptr %_20), !dbg !543
  store i64 %pre_len, ptr %pre_len.dbg.spill, align 8, !dbg !543
    #dbg_declare(ptr %pre_len.dbg.spill, !513, !DIExpression(), !544)
; call <core::str::iter::CharIndices as core::iter::traits::double_ended::DoubleEndedIterator>::next_back
  %1 = call { i64, i32 } @"_ZN102_$LT$core..str..iter..CharIndices$u20$as$u20$core..iter..traits..double_ended..DoubleEndedIterator$GT$9next_back17h1b6f8f906ea30f3cE"(ptr align 8 %s), !dbg !545
  %2 = extractvalue { i64, i32 } %1, 0, !dbg !545
  %3 = extractvalue { i64, i32 } %1, 1, !dbg !545
  store i64 %2, ptr %_5, align 8, !dbg !545
  %4 = getelementptr inbounds i8, ptr %_5, i64 8, !dbg !545
  store i32 %3, ptr %4, align 8, !dbg !545
  %5 = load i64, ptr %_5, align 8, !dbg !546
  %6 = getelementptr inbounds i8, ptr %_5, i64 8, !dbg !546
  %7 = load i32, ptr %6, align 8, !dbg !546
  %8 = icmp eq i32 %7, 1114112, !dbg !546
  %_6 = select i1 %8, i64 0, i64 1, !dbg !546
  %9 = trunc nuw i64 %_6 to i1, !dbg !547
  br i1 %9, label %bb2, label %bb6, !dbg !547

bb2:                                              ; preds = %start
  %i = load i64, ptr %_5, align 8, !dbg !548
  store i64 %i, ptr %i.dbg.spill, align 8, !dbg !548
    #dbg_declare(ptr %i.dbg.spill, !515, !DIExpression(), !548)
  %10 = getelementptr inbounds i8, ptr %_5, i64 8, !dbg !549
  %c = load i32, ptr %10, align 8, !dbg !549
  store i32 %c, ptr %c.dbg.spill, align 4, !dbg !549
    #dbg_declare(ptr %c.dbg.spill, !517, !DIExpression(), !549)
  store ptr %s, ptr %self.dbg.spill2, align 8, !dbg !550
    #dbg_declare(ptr %self.dbg.spill2, !526, !DIExpression(), !551)
  %11 = getelementptr inbounds i8, ptr %s, i64 8, !dbg !553
  %_24 = load ptr, ptr %11, align 8, !dbg !553
  store ptr %_24, ptr %end.dbg.spill3, align 8, !dbg !554
    #dbg_declare(ptr %end.dbg.spill3, !535, !DIExpression(), !555)
  %_25 = load ptr, ptr %s, align 8, !dbg !556
; call core::ptr::non_null::NonNull<T>::offset_from_unsigned
  %len = call i64 @"_ZN4core3ptr8non_null16NonNull$LT$T$GT$20offset_from_unsigned17hb9b81276d817c1cfE"(ptr %_24, ptr %_25), !dbg !557
  store i64 %len, ptr %len.dbg.spill, align 8, !dbg !557
    #dbg_declare(ptr %len.dbg.spill, !518, !DIExpression(), !558)
  %char_len = sub i64 %pre_len, %len, !dbg !559
  store i64 %char_len, ptr %char_len.dbg.spill, align 8, !dbg !559
    #dbg_declare(ptr %char_len.dbg.spill, !520, !DIExpression(), !560)
  %_13 = getelementptr inbounds i8, ptr %self, i64 40, !dbg !561
; call <F as core::str::pattern::MultiCharEq>::matches
  %_12 = call zeroext i1 @"_ZN53_$LT$F$u20$as$u20$core..str..pattern..MultiCharEq$GT$7matches17hf9d619841f24538aE"(ptr align 1 %_13, i32 %c), !dbg !562
  br i1 %_12, label %bb4, label %bb5, !dbg !561

bb6:                                              ; preds = %start
  store i64 2, ptr %_0, align 8, !dbg !563
  br label %bb8, !dbg !564

bb5:                                              ; preds = %bb2
  %_15 = add i64 %i, %char_len, !dbg !565
  %12 = getelementptr inbounds i8, ptr %_0, i64 8, !dbg !566
  store i64 %i, ptr %12, align 8, !dbg !566
  %13 = getelementptr inbounds i8, ptr %_0, i64 16, !dbg !566
  store i64 %_15, ptr %13, align 8, !dbg !566
  store i64 1, ptr %_0, align 8, !dbg !566
  br label %bb7, !dbg !567

bb4:                                              ; preds = %bb2
  %_14 = add i64 %i, %char_len, !dbg !568
  %14 = getelementptr inbounds i8, ptr %_0, i64 8, !dbg !569
  store i64 %i, ptr %14, align 8, !dbg !569
  %15 = getelementptr inbounds i8, ptr %_0, i64 16, !dbg !569
  store i64 %_14, ptr %15, align 8, !dbg !569
  store i64 0, ptr %_0, align 8, !dbg !569
  br label %bb7, !dbg !570

bb7:                                              ; preds = %bb4, %bb5
  br label %bb8, !dbg !564

bb8:                                              ; preds = %bb6, %bb7
  ret void, !dbg !564

bb11:                                             ; No predecessors!
  unreachable, !dbg !571
}

; <core::iter::adapters::step_by::StepBy<I> as core::iter::traits::iterator::Iterator>::next
; Function Attrs: inlinehint uwtable
define internal { i64, i64 } @"_ZN105_$LT$core..iter..adapters..step_by..StepBy$LT$I$GT$$u20$as$u20$core..iter..traits..iterator..Iterator$GT$4next17h9b0b98974f4991c3E"(ptr align 8 %self) unnamed_addr #0 !dbg !572 {
start:
  %self.dbg.spill = alloca [8 x i8], align 8
  store ptr %self, ptr %self.dbg.spill, align 8
    #dbg_declare(ptr %self.dbg.spill, !610, !DIExpression(), !611)
; call <core::iter::adapters::step_by::StepBy<core::ops::range::Range<usize>> as core::iter::adapters::step_by::StepByImpl<core::ops::range::Range<usize>>>::spec_next
  %0 = call { i64, i64 } @"_ZN187_$LT$core..iter..adapters..step_by..StepBy$LT$core..ops..range..Range$LT$usize$GT$$GT$$u20$as$u20$core..iter..adapters..step_by..StepByImpl$LT$core..ops..range..Range$LT$usize$GT$$GT$$GT$9spec_next17hd05a1f4e649c565bE"(ptr align 8 %self), !dbg !612
  %_0.0 = extractvalue { i64, i64 } %0, 0, !dbg !612
  %_0.1 = extractvalue { i64, i64 } %0, 1, !dbg !612
  %1 = insertvalue { i64, i64 } poison, i64 %_0.0, 0, !dbg !613
  %2 = insertvalue { i64, i64 } %1, i64 %_0.1, 1, !dbg !613
  ret { i64, i64 } %2, !dbg !613
}

; <core::str::pattern::CharPredicateSearcher<F> as core::str::pattern::ReverseSearcher>::next_reject_back
; Function Attrs: inlinehint uwtable
define internal void @"_ZN106_$LT$core..str..pattern..CharPredicateSearcher$LT$F$GT$$u20$as$u20$core..str..pattern..ReverseSearcher$GT$16next_reject_back17hd77f8716649dfb98E"(ptr sret([24 x i8]) align 8 %_0, ptr align 8 %self) unnamed_addr #0 !dbg !614 {
start:
  %self.dbg.spill = alloca [8 x i8], align 8
  store ptr %self, ptr %self.dbg.spill, align 8
    #dbg_declare(ptr %self.dbg.spill, !642, !DIExpression(), !643)
; call core::str::pattern::ReverseSearcher::next_reject_back
  call void @_ZN4core3str7pattern15ReverseSearcher16next_reject_back17h907e083bdc1d16e9E(ptr sret([24 x i8]) align 8 %_0, ptr align 8 %self), !dbg !644
  ret void, !dbg !645
}

; num_bigint::biguint::bits::<impl core::ops::bit::BitXor<num_bigint::biguint::BigUint> for &num_bigint::biguint::BigUint>::bitxor
; Function Attrs: inlinehint uwtable
define internal void @"_ZN10num_bigint7biguint4bits121_$LT$impl$u20$core..ops..bit..BitXor$LT$num_bigint..biguint..BigUint$GT$$u20$for$u20$$RF$num_bigint..biguint..BigUint$GT$6bitxor17h9acf6ce1304e0d0aE"(ptr sret([24 x i8]) align 8 %_0, ptr align 8 %self, ptr align 8 %other) unnamed_addr #0 !dbg !646 {
start:
  %self.dbg.spill = alloca [8 x i8], align 8
  store ptr %self, ptr %self.dbg.spill, align 8
    #dbg_declare(ptr %self.dbg.spill, !693, !DIExpression(), !695)
    #dbg_declare(ptr %other, !694, !DIExpression(), !696)
; call num_bigint::biguint::bits::<impl core::ops::bit::BitXor<&num_bigint::biguint::BigUint> for num_bigint::biguint::BigUint>::bitxor
  call void @"_ZN10num_bigint7biguint4bits121_$LT$impl$u20$core..ops..bit..BitXor$LT$$RF$num_bigint..biguint..BigUint$GT$$u20$for$u20$num_bigint..biguint..BigUint$GT$6bitxor17h2e5432c27894b673E"(ptr sret([24 x i8]) align 8 %_0, ptr align 8 %other, ptr align 8 %self), !dbg !697
  ret void, !dbg !698
}

; num_bigint::biguint::shift::<impl core::ops::bit::Shr<i32> for &num_bigint::biguint::BigUint>::shr
; Function Attrs: inlinehint uwtable
define internal void @"_ZN10num_bigint7biguint5shift93_$LT$impl$u20$core..ops..bit..Shr$LT$i32$GT$$u20$for$u20$$RF$num_bigint..biguint..BigUint$GT$3shr17ha06710db77fa5945E"(ptr sret([24 x i8]) align 8 %_0, ptr align 8 %self, i32 %rhs) unnamed_addr #0 !dbg !699 {
start:
  %rhs.dbg.spill = alloca [4 x i8], align 4
  %self.dbg.spill = alloca [8 x i8], align 8
  %_3 = alloca [24 x i8], align 8
  store ptr %self, ptr %self.dbg.spill, align 8
    #dbg_declare(ptr %self.dbg.spill, !706, !DIExpression(), !708)
  store i32 %rhs, ptr %rhs.dbg.spill, align 4
    #dbg_declare(ptr %rhs.dbg.spill, !707, !DIExpression(), !709)
  %0 = getelementptr inbounds i8, ptr %_3, i64 8, !dbg !710
  store ptr %self, ptr %0, align 8, !dbg !710
  store i64 -9223372036854775808, ptr %_3, align 8, !dbg !710
; call num_bigint::biguint::shift::biguint_shr
  call void @_ZN10num_bigint7biguint5shift11biguint_shr17h3f3956e8db7b2c96E(ptr sret([24 x i8]) align 8 %_0, ptr align 8 %_3, i32 %rhs), !dbg !711
  ret void, !dbg !712
}

; num_bigint::biguint::BigUint::from_bytes_be
; Function Attrs: inlinehint uwtable
define internal void @_ZN10num_bigint7biguint7BigUint13from_bytes_be17h46da48b7b7a716f9E(ptr sret([24 x i8]) align 8 %_0, ptr align 1 %bytes.0, i64 %bytes.1) unnamed_addr #0 personality ptr @rust_eh_personality !dbg !713 {
start:
  %0 = alloca [16 x i8], align 8
  %bytes.dbg.spill = alloca [16 x i8], align 8
  %v = alloca [24 x i8], align 8
  store ptr %bytes.0, ptr %bytes.dbg.spill, align 8
  %1 = getelementptr inbounds i8, ptr %bytes.dbg.spill, i64 8
  store i64 %bytes.1, ptr %1, align 8
    #dbg_declare(ptr %bytes.dbg.spill, !719, !DIExpression(), !731)
    #dbg_declare(ptr %v, !720, !DIExpression(), !732)
; call core::slice::<impl [T]>::is_empty
  %_2 = call zeroext i1 @"_ZN4core5slice29_$LT$impl$u20$$u5b$T$u5d$$GT$8is_empty17hd9c5f25c92219018E"(ptr align 1 %bytes.0, i64 %bytes.1), !dbg !733
  br i1 %_2, label %bb2, label %bb3, !dbg !734

bb3:                                              ; preds = %start
; call alloc::slice::<impl [T]>::to_vec
  call void @"_ZN5alloc5slice29_$LT$impl$u20$$u5b$T$u5d$$GT$6to_vec17h9dcb77e47533ca62E"(ptr sret([24 x i8]) align 8 %v, ptr align 1 %bytes.0, i64 %bytes.1), !dbg !735
; invoke <alloc::vec::Vec<T,A> as core::ops::deref::DerefMut>::deref_mut
  %2 = invoke { ptr, i64 } @"_ZN75_$LT$alloc..vec..Vec$LT$T$C$A$GT$$u20$as$u20$core..ops..deref..DerefMut$GT$9deref_mut17h3854d670e0874edcE"(ptr align 8 %v)
          to label %bb5 unwind label %cleanup, !dbg !736

bb2:                                              ; preds = %start
  call void @llvm.memcpy.p0.p0.i64(ptr align 8 %_0, ptr align 8 @anon.284cfee5410ba401389a9c2a4c0ae086.1, i64 24, i1 false), !dbg !737
  br label %bb9, !dbg !738

bb10:                                             ; preds = %cleanup
; invoke core::ptr::drop_in_place<alloc::vec::Vec<u8>>
  invoke void @"_ZN4core3ptr46drop_in_place$LT$alloc..vec..Vec$LT$u8$GT$$GT$17h16aea73ea28d62a6E"(ptr align 8 %v) #15
          to label %bb11 unwind label %terminate, !dbg !739

cleanup:                                          ; preds = %bb7, %bb6, %bb5, %bb3
  %3 = landingpad { ptr, i32 }
          cleanup
  %4 = extractvalue { ptr, i32 } %3, 0
  %5 = extractvalue { ptr, i32 } %3, 1
  store ptr %4, ptr %0, align 8
  %6 = getelementptr inbounds i8, ptr %0, i64 8
  store i32 %5, ptr %6, align 8
  br label %bb10

bb5:                                              ; preds = %bb3
  %_5.0 = extractvalue { ptr, i64 } %2, 0, !dbg !736
  %_5.1 = extractvalue { ptr, i64 } %2, 1, !dbg !736
; invoke core::slice::<impl [T]>::reverse
  invoke void @"_ZN4core5slice29_$LT$impl$u20$$u5b$T$u5d$$GT$7reverse17h81c14be77cbab5a8E"(ptr align 1 %_5.0, i64 %_5.1)
          to label %bb6 unwind label %cleanup, !dbg !740

bb6:                                              ; preds = %bb5
; invoke <alloc::vec::Vec<T,A> as core::ops::deref::Deref>::deref
  %7 = invoke { ptr, i64 } @"_ZN72_$LT$alloc..vec..Vec$LT$T$C$A$GT$$u20$as$u20$core..ops..deref..Deref$GT$5deref17h5151098fb6dc32a3E"(ptr align 8 %v)
          to label %bb7 unwind label %cleanup, !dbg !741

bb7:                                              ; preds = %bb6
  %_7.0 = extractvalue { ptr, i64 } %7, 0, !dbg !741
  %_7.1 = extractvalue { ptr, i64 } %7, 1, !dbg !741
; invoke num_bigint::biguint::BigUint::from_bytes_le
  invoke void @_ZN10num_bigint7biguint7BigUint13from_bytes_le17h2d60906da2a46036E(ptr sret([24 x i8]) align 8 %_0, ptr align 1 %_7.0, i64 %_7.1)
          to label %bb8 unwind label %cleanup, !dbg !742

bb8:                                              ; preds = %bb7
; call core::ptr::drop_in_place<alloc::vec::Vec<u8>>
  call void @"_ZN4core3ptr46drop_in_place$LT$alloc..vec..Vec$LT$u8$GT$$GT$17h16aea73ea28d62a6E"(ptr align 8 %v), !dbg !739
  br label %bb9, !dbg !739

bb9:                                              ; preds = %bb2, %bb8
  ret void, !dbg !743

terminate:                                        ; preds = %bb10
  %8 = landingpad { ptr, i32 }
          filter [0 x ptr] zeroinitializer
  %9 = extractvalue { ptr, i32 } %8, 0
  %10 = extractvalue { ptr, i32 } %8, 1
; call core::panicking::panic_in_cleanup
  call void @_ZN4core9panicking16panic_in_cleanup17h421db903ec8c7969E() #16, !dbg !744
  unreachable, !dbg !744

bb11:                                             ; preds = %bb10
  %11 = load ptr, ptr %0, align 8, !dbg !744
  %12 = getelementptr inbounds i8, ptr %0, i64 8, !dbg !744
  %13 = load i32, ptr %12, align 8, !dbg !744
  %14 = insertvalue { ptr, i32 } poison, ptr %11, 0, !dbg !744
  %15 = insertvalue { ptr, i32 } %14, i32 %13, 1, !dbg !744
  resume { ptr, i32 } %15, !dbg !744
}

; num_bigint::biguint::BigUint::from_bytes_le
; Function Attrs: inlinehint uwtable
define internal void @_ZN10num_bigint7biguint7BigUint13from_bytes_le17h2d60906da2a46036E(ptr sret([24 x i8]) align 8 %_0, ptr align 1 %bytes.0, i64 %bytes.1) unnamed_addr #0 !dbg !745 {
start:
  %bytes.dbg.spill = alloca [16 x i8], align 8
  store ptr %bytes.0, ptr %bytes.dbg.spill, align 8
  %0 = getelementptr inbounds i8, ptr %bytes.dbg.spill, i64 8
  store i64 %bytes.1, ptr %0, align 8
    #dbg_declare(ptr %bytes.dbg.spill, !748, !DIExpression(), !749)
; call core::slice::<impl [T]>::is_empty
  %_2 = call zeroext i1 @"_ZN4core5slice29_$LT$impl$u20$$u5b$T$u5d$$GT$8is_empty17hd9c5f25c92219018E"(ptr align 1 %bytes.0, i64 %bytes.1), !dbg !750
  br i1 %_2, label %bb2, label %bb3, !dbg !751

bb3:                                              ; preds = %start
; call num_bigint::biguint::convert::from_bitwise_digits_le
  call void @_ZN10num_bigint7biguint7convert22from_bitwise_digits_le17h59d069c24a590dcdE(ptr sret([24 x i8]) align 8 %_0, ptr align 1 %bytes.0, i64 %bytes.1, i8 8), !dbg !752
  br label %bb4, !dbg !752

bb2:                                              ; preds = %start
  call void @llvm.memcpy.p0.p0.i64(ptr align 8 %_0, ptr align 8 @anon.284cfee5410ba401389a9c2a4c0ae086.1, i64 24, i1 false), !dbg !753
  br label %bb4, !dbg !754

bb4:                                              ; preds = %bb2, %bb3
  ret void, !dbg !755
}

; <core::ops::range::Range<usize> as core::iter::adapters::step_by::SpecRangeSetup<core::ops::range::Range<usize>>>::setup
; Function Attrs: inlinehint uwtable
define internal { i64, i64 } @"_ZN146_$LT$core..ops..range..Range$LT$usize$GT$$u20$as$u20$core..iter..adapters..step_by..SpecRangeSetup$LT$core..ops..range..Range$LT$usize$GT$$GT$$GT$5setup17hfb8b5b5c5cf22d88E"(i64 %0, i64 %1, i64 %step) unnamed_addr #0 !dbg !756 {
start:
  %r.dbg.spill = alloca [8 x i8], align 8
  %d.dbg.spill = alloca [8 x i8], align 8
  %inner_len.dbg.spill = alloca [8 x i8], align 8
  %steps.dbg.spill = alloca [8 x i8], align 8
  %end.dbg.spill = alloca [8 x i8], align 8
  %start.dbg.spill = alloca [8 x i8], align 8
  %other.dbg.spill = alloca [8 x i8], align 8
  %self.dbg.spill1 = alloca [8 x i8], align 8
  %self.dbg.spill = alloca [8 x i8], align 8
  %step.dbg.spill = alloca [8 x i8], align 8
  %_22 = alloca [8 x i8], align 8
  %yield_count = alloca [8 x i8], align 8
  %r = alloca [16 x i8], align 8
  store i64 %0, ptr %r, align 8
  %2 = getelementptr inbounds i8, ptr %r, i64 8
  store i64 %1, ptr %2, align 8
    #dbg_declare(ptr %r, !761, !DIExpression(), !767)
  store i64 %step, ptr %step.dbg.spill, align 8
    #dbg_declare(ptr %step.dbg.spill, !762, !DIExpression(), !768)
    #dbg_declare(ptr %step.dbg.spill, !769, !DIExpression(), !781)
    #dbg_declare(ptr %yield_count, !765, !DIExpression(), !783)
  store ptr %r, ptr %self.dbg.spill, align 8, !dbg !784
    #dbg_declare(ptr %self.dbg.spill, !785, !DIExpression(), !800)
  store ptr %r, ptr %self.dbg.spill1, align 8, !dbg !802
    #dbg_declare(ptr %self.dbg.spill1, !803, !DIExpression(), !813)
  %other = getelementptr inbounds i8, ptr %r, i64 8, !dbg !814
  store ptr %other, ptr %other.dbg.spill, align 8, !dbg !814
    #dbg_declare(ptr %other.dbg.spill, !812, !DIExpression(), !815)
  %_12 = load i64, ptr %r, align 8, !dbg !816
  %3 = getelementptr inbounds i8, ptr %r, i64 8, !dbg !817
  %_13 = load i64, ptr %3, align 8, !dbg !817
  %_7 = icmp ult i64 %_12, %_13, !dbg !816
  br i1 %_7, label %bb1, label %bb2, !dbg !802

bb2:                                              ; preds = %start
  store i64 0, ptr %_22, align 8, !dbg !818
  br label %bb3, !dbg !819

bb1:                                              ; preds = %start
  store ptr %r, ptr %start.dbg.spill, align 8, !dbg !820
    #dbg_declare(ptr %start.dbg.spill, !821, !DIExpression(), !830)
  %end = getelementptr inbounds i8, ptr %r, i64 8, !dbg !832
  store ptr %end, ptr %end.dbg.spill, align 8, !dbg !832
    #dbg_declare(ptr %end.dbg.spill, !827, !DIExpression(), !833)
  %_15 = load i64, ptr %r, align 8, !dbg !834
  %4 = getelementptr inbounds i8, ptr %r, i64 8, !dbg !835
  %_16 = load i64, ptr %4, align 8, !dbg !835
  %_14 = icmp ule i64 %_15, %_16, !dbg !834
  br i1 %_14, label %bb4, label %bb5, !dbg !834

bb3:                                              ; preds = %bb6, %bb2
  %inner_len = load i64, ptr %_22, align 8, !dbg !784
  store i64 %inner_len, ptr %inner_len.dbg.spill, align 8, !dbg !784
    #dbg_declare(ptr %inner_len.dbg.spill, !763, !DIExpression(), !836)
    #dbg_declare(ptr %inner_len.dbg.spill, !776, !DIExpression(), !837)
  %_19 = icmp eq i64 %step, 0, !dbg !838
  br i1 %_19, label %panic, label %bb7, !dbg !838

bb5:                                              ; preds = %bb1
  store i64 0, ptr %_22, align 8, !dbg !839
  br label %bb6, !dbg !840

bb4:                                              ; preds = %bb1
  %steps = sub i64 %_16, %_15, !dbg !841
  store i64 %steps, ptr %steps.dbg.spill, align 8, !dbg !841
    #dbg_declare(ptr %steps.dbg.spill, !828, !DIExpression(), !842)
  store i64 %steps, ptr %_22, align 8, !dbg !843
  br label %bb6, !dbg !840

bb6:                                              ; preds = %bb4, %bb5
  br label %bb3, !dbg !831

bb7:                                              ; preds = %bb3
  %d = udiv i64 %inner_len, %step, !dbg !838
  store i64 %d, ptr %d.dbg.spill, align 8, !dbg !838
    #dbg_declare(ptr %d.dbg.spill, !777, !DIExpression(), !844)
  br i1 %_19, label %panic2, label %bb8, !dbg !845

panic:                                            ; preds = %bb3
; call core::panicking::panic_const::panic_const_div_by_zero
  call void @_ZN4core9panicking11panic_const23panic_const_div_by_zero17hf5b5fda6932225fbE(ptr align 8 @alloc_5b2c111f186557f404c199028cd23bda) #17, !dbg !838
  unreachable, !dbg !838

bb8:                                              ; preds = %bb7
  %r3 = urem i64 %inner_len, %step, !dbg !845
  store i64 %r3, ptr %r.dbg.spill, align 8, !dbg !845
    #dbg_declare(ptr %r.dbg.spill, !779, !DIExpression(), !846)
  %_21 = icmp ugt i64 %r3, 0, !dbg !847
  br i1 %_21, label %bb9, label %bb10, !dbg !847

panic2:                                           ; preds = %bb7
; call core::panicking::panic_const::panic_const_rem_by_zero
  call void @_ZN4core9panicking11panic_const23panic_const_rem_by_zero17h49b6a387bf6fe5c5E(ptr align 8 @alloc_5b2c111f186557f404c199028cd23bda) #17, !dbg !845
  unreachable, !dbg !845

bb10:                                             ; preds = %bb8
  store i64 %d, ptr %yield_count, align 8, !dbg !848
  br label %bb11, !dbg !849

bb9:                                              ; preds = %bb8
  %5 = add i64 %d, 1, !dbg !850
  store i64 %5, ptr %yield_count, align 8, !dbg !850
  br label %bb11, !dbg !849

bb11:                                             ; preds = %bb9, %bb10
  %_6 = load i64, ptr %yield_count, align 8, !dbg !851
  %6 = getelementptr inbounds i8, ptr %r, i64 8, !dbg !852
  store i64 %_6, ptr %6, align 8, !dbg !852
  %_0.0 = load i64, ptr %r, align 8, !dbg !853
  %7 = getelementptr inbounds i8, ptr %r, i64 8, !dbg !853
  %_0.1 = load i64, ptr %7, align 8, !dbg !853
  %8 = insertvalue { i64, i64 } poison, i64 %_0.0, 0, !dbg !854
  %9 = insertvalue { i64, i64 } %8, i64 %_0.1, 1, !dbg !854
  ret { i64, i64 } %9, !dbg !854
}

; <core::result::Result<T,F> as core::ops::try_trait::FromResidual<core::result::Result<core::convert::Infallible,E>>>::from_residual
; Function Attrs: inlinehint uwtable
define internal ptr @"_ZN153_$LT$core..result..Result$LT$T$C$F$GT$$u20$as$u20$core..ops..try_trait..FromResidual$LT$core..result..Result$LT$core..convert..Infallible$C$E$GT$$GT$$GT$13from_residual17hc7c4cdcb208645acE"(ptr %0, ptr align 8 %1) unnamed_addr #0 !dbg !855 {
start:
  %t.dbg.spill.i = alloca [8 x i8], align 8
  %e.dbg.spill = alloca [8 x i8], align 8
  %_0 = alloca [8 x i8], align 8
  %residual = alloca [8 x i8], align 8
  store ptr %0, ptr %residual, align 8
    #dbg_declare(ptr %residual, !879, !DIExpression(), !884)
  %e = load ptr, ptr %residual, align 8, !dbg !885
  store ptr %e, ptr %e.dbg.spill, align 8, !dbg !885
    #dbg_declare(ptr %e.dbg.spill, !880, !DIExpression(), !886)
  store ptr %e, ptr %t.dbg.spill.i, align 8
    #dbg_declare(ptr %t.dbg.spill.i, !887, !DIExpression(), !896)
  store ptr %e, ptr %_0, align 8, !dbg !898
  %2 = load ptr, ptr %_0, align 8, !dbg !899
  ret ptr %2, !dbg !899
}

; <core::iter::adapters::step_by::StepBy<core::ops::range::Range<usize>> as core::iter::adapters::step_by::StepByImpl<core::ops::range::Range<usize>>>::spec_next
; Function Attrs: inlinehint uwtable
define internal { i64, i64 } @"_ZN187_$LT$core..iter..adapters..step_by..StepBy$LT$core..ops..range..Range$LT$usize$GT$$GT$$u20$as$u20$core..iter..adapters..step_by..StepByImpl$LT$core..ops..range..Range$LT$usize$GT$$GT$$GT$9spec_next17hd05a1f4e649c565bE"(ptr align 8 %self) unnamed_addr #0 !dbg !900 {
start:
  %val.dbg.spill = alloca [8 x i8], align 8
  %remaining.dbg.spill = alloca [8 x i8], align 8
  %step.dbg.spill = alloca [8 x i8], align 8
  %n.dbg.spill3 = alloca [8 x i8], align 8
  %n.dbg.spill = alloca [8 x i8], align 8
  %default.dbg.spill = alloca [8 x i8], align 8
  %self.dbg.spill = alloca [8 x i8], align 8
  %_11 = alloca [8 x i8], align 8
  %self1 = alloca [8 x i8], align 8
  %_0 = alloca [16 x i8], align 8
  store ptr %self, ptr %self.dbg.spill, align 8
    #dbg_declare(ptr %self.dbg.spill, !903, !DIExpression(), !910)
    #dbg_declare(ptr %self.dbg.spill, !911, !DIExpression(), !925)
    #dbg_declare(ptr %self1, !927, !DIExpression(), !950)
  store i64 -1, ptr %default.dbg.spill, align 8, !dbg !952
    #dbg_declare(ptr %default.dbg.spill, !947, !DIExpression(), !952)
  %0 = getelementptr inbounds i8, ptr %self, i64 16, !dbg !953
  %_10 = load i64, ptr %0, align 8, !dbg !953
  %n = add nuw i64 %_10, 1, !dbg !954
  store i64 %n, ptr %n.dbg.spill, align 8, !dbg !954
    #dbg_declare(ptr %n.dbg.spill, !955, !DIExpression(), !964)
    #dbg_declare(ptr %n.dbg.spill, !966, !DIExpression(), !985)
  store i64 %n, ptr %_11, align 8, !dbg !987
  %1 = load i64, ptr %_11, align 8, !dbg !986
  %2 = icmp eq i64 %1, 0, !dbg !986
  %_12 = select i1 %2, i64 0, i64 1, !dbg !986
  %3 = trunc nuw i64 %_12 to i1, !dbg !988
  br i1 %3, label %bb6, label %bb5, !dbg !988

bb6:                                              ; preds = %start
  %n2 = load i64, ptr %_11, align 8, !dbg !989
  store i64 %n2, ptr %n.dbg.spill3, align 8, !dbg !989
    #dbg_declare(ptr %n.dbg.spill3, !962, !DIExpression(), !990)
    #dbg_declare(ptr %n.dbg.spill3, !991, !DIExpression(), !997)
  store i64 %n2, ptr %step.dbg.spill, align 8, !dbg !999
    #dbg_declare(ptr %step.dbg.spill, !904, !DIExpression(), !1000)
    #dbg_declare(ptr %step.dbg.spill, !1001, !DIExpression(), !1009)
    #dbg_declare(ptr %step.dbg.spill, !1011, !DIExpression(), !1017)
    #dbg_declare(ptr %step.dbg.spill, !1019, !DIExpression(), !1024)
    #dbg_declare(ptr %step.dbg.spill, !948, !DIExpression(), !1026)
    #dbg_declare(ptr %step.dbg.spill, !1027, !DIExpression(), !1033)
  store i64 %n2, ptr %self1, align 8, !dbg !1035
  %4 = getelementptr inbounds i8, ptr %self, i64 8, !dbg !1036
  %remaining = load i64, ptr %4, align 8, !dbg !1036
  store i64 %remaining, ptr %remaining.dbg.spill, align 8, !dbg !1036
    #dbg_declare(ptr %remaining.dbg.spill, !906, !DIExpression(), !1037)
  %_6 = icmp ugt i64 %remaining, 0, !dbg !1038
  br i1 %_6, label %bb1, label %bb2, !dbg !1038

bb5:                                              ; preds = %start
; call core::num::nonzero::NonZero<T>::new_unchecked::precondition_check
  call void @"_ZN4core3num7nonzero16NonZero$LT$T$GT$13new_unchecked18precondition_check17hbc05f0c0d63c0f21E"(ptr align 8 @alloc_c2bb4800325d1175d7828886e2f1bcca) #14, !dbg !1039
  br label %bb4, !dbg !1039

bb4:                                              ; preds = %bb5
  unreachable, !dbg !1041

bb2:                                              ; preds = %bb6
  %5 = load i64, ptr @anon.284cfee5410ba401389a9c2a4c0ae086.2, align 8, !dbg !1043
  %6 = load i64, ptr getelementptr inbounds (i8, ptr @anon.284cfee5410ba401389a9c2a4c0ae086.2, i64 8), align 8, !dbg !1043
  store i64 %5, ptr %_0, align 8, !dbg !1043
  %7 = getelementptr inbounds i8, ptr %_0, i64 8, !dbg !1043
  store i64 %6, ptr %7, align 8, !dbg !1043
  br label %bb3, !dbg !1044

bb1:                                              ; preds = %bb6
  %val = load i64, ptr %self, align 8, !dbg !1045
  store i64 %val, ptr %val.dbg.spill, align 8, !dbg !1045
    #dbg_declare(ptr %val.dbg.spill, !908, !DIExpression(), !1046)
    #dbg_declare(ptr %val.dbg.spill, !1032, !DIExpression(), !1047)
  %_8 = add i64 %val, %n2, !dbg !1048
  store i64 %_8, ptr %self, align 8, !dbg !1049
  %8 = getelementptr inbounds i8, ptr %self, i64 8, !dbg !1050
  %9 = sub i64 %remaining, 1, !dbg !1050
  store i64 %9, ptr %8, align 8, !dbg !1050
  %10 = getelementptr inbounds i8, ptr %_0, i64 8, !dbg !1051
  store i64 %val, ptr %10, align 8, !dbg !1051
  store i64 1, ptr %_0, align 8, !dbg !1051
  br label %bb3, !dbg !1044

bb3:                                              ; preds = %bb1, %bb2
  %11 = load i64, ptr %_0, align 8, !dbg !1052
  %12 = getelementptr inbounds i8, ptr %_0, i64 8, !dbg !1052
  %13 = load i64, ptr %12, align 8, !dbg !1052
  %14 = insertvalue { i64, i64 } poison, i64 %11, 0, !dbg !1052
  %15 = insertvalue { i64, i64 } %14, i64 %13, 1, !dbg !1052
  ret { i64, i64 } %15, !dbg !1052
}

; <T as hex::ToHex>::encode_hex
; Function Attrs: uwtable
define internal void @"_ZN32_$LT$T$u20$as$u20$hex..ToHex$GT$10encode_hex17h0347adf98d6ef66aE"(ptr sret([24 x i8]) align 8 %_0, ptr align 8 %self) unnamed_addr #1 !dbg !1053 {
start:
  %self.dbg.spill = alloca [8 x i8], align 8
  store ptr %self, ptr %self.dbg.spill, align 8
    #dbg_declare(ptr %self.dbg.spill, !1065, !DIExpression(), !1069)
; call <&T as core::convert::AsRef<U>>::as_ref
  %0 = call { ptr, i64 } @"_ZN55_$LT$$RF$T$u20$as$u20$core..convert..AsRef$LT$U$GT$$GT$6as_ref17hd60baf41035cad5aE"(ptr align 8 %self), !dbg !1070
  %_2.0 = extractvalue { ptr, i64 } %0, 0, !dbg !1070
  %_2.1 = extractvalue { ptr, i64 } %0, 1, !dbg !1070
; call hex::encode_to_iter
  call void @_ZN3hex14encode_to_iter17h321781942fb693daE(ptr sret([24 x i8]) align 8 %_0, ptr align 1 @alloc_f27c91ec91c5a0660ba00b4219598bd0, ptr align 1 %_2.0, i64 %_2.1), !dbg !1071
  ret void, !dbg !1072
}

; hex::encode_to_iter
; Function Attrs: inlinehint uwtable
define internal void @_ZN3hex14encode_to_iter17h321781942fb693daE(ptr sret([24 x i8]) align 8 %_0, ptr align 1 %table, ptr align 1 %source.0, i64 %source.1) unnamed_addr #0 !dbg !1073 {
start:
  %source.dbg.spill = alloca [16 x i8], align 8
  %table.dbg.spill = alloca [8 x i8], align 8
  %_3 = alloca [32 x i8], align 8
  store ptr %table, ptr %table.dbg.spill, align 8
    #dbg_declare(ptr %table.dbg.spill, !1081, !DIExpression(), !1085)
  store ptr %source.0, ptr %source.dbg.spill, align 8
  %0 = getelementptr inbounds i8, ptr %source.dbg.spill, i64 8
  store i64 %source.1, ptr %0, align 8
    #dbg_declare(ptr %source.dbg.spill, !1082, !DIExpression(), !1086)
; call hex::BytesToHexChars::new
  call void @_ZN3hex15BytesToHexChars3new17h2a57763703f5c0cdE(ptr sret([32 x i8]) align 8 %_3, ptr align 1 %source.0, i64 %source.1, ptr align 1 %table), !dbg !1087
; call core::iter::traits::iterator::Iterator::collect
  call void @_ZN4core4iter6traits8iterator8Iterator7collect17h6c84ba833e87a0d8E(ptr sret([24 x i8]) align 8 %_0, ptr align 8 %_3), !dbg !1088
  ret void, !dbg !1089
}

; hex::encode
; Function Attrs: uwtable
define internal void @_ZN3hex6encode17h04af9b7614623139E(ptr sret([24 x i8]) align 8 %_0, ptr align 1 %0, i64 %1) unnamed_addr #1 personality ptr @rust_eh_personality !dbg !1090 {
start:
  %2 = alloca [16 x i8], align 8
  %data = alloca [16 x i8], align 8
  store ptr %0, ptr %data, align 8
  %3 = getelementptr inbounds i8, ptr %data, i64 8
  store i64 %1, ptr %3, align 8
    #dbg_declare(ptr %data, !1094, !DIExpression(), !1096)
; invoke <T as hex::ToHex>::encode_hex
  invoke void @"_ZN32_$LT$T$u20$as$u20$hex..ToHex$GT$10encode_hex17h0347adf98d6ef66aE"(ptr sret([24 x i8]) align 8 %_0, ptr align 8 %data)
          to label %bb1 unwind label %cleanup, !dbg !1097

bb3:                                              ; preds = %cleanup
  %4 = load ptr, ptr %2, align 8, !dbg !1098
  %5 = getelementptr inbounds i8, ptr %2, i64 8, !dbg !1098
  %6 = load i32, ptr %5, align 8, !dbg !1098
  %7 = insertvalue { ptr, i32 } poison, ptr %4, 0, !dbg !1098
  %8 = insertvalue { ptr, i32 } %7, i32 %6, 1, !dbg !1098
  resume { ptr, i32 } %8, !dbg !1098

cleanup:                                          ; preds = %start
  %9 = landingpad { ptr, i32 }
          cleanup
  %10 = extractvalue { ptr, i32 } %9, 0
  %11 = extractvalue { ptr, i32 } %9, 1
  store ptr %10, ptr %2, align 8
  %12 = getelementptr inbounds i8, ptr %2, i64 8
  store i32 %11, ptr %12, align 8
  br label %bb3

bb1:                                              ; preds = %start
  ret void, !dbg !1099
}

; std::fs::OpenOptions::open
; Function Attrs: uwtable
define internal { i64, ptr } @_ZN3std2fs11OpenOptions4open17h9cfd8ee342c95f0bE(ptr align 8 %self, ptr align 1 %0, i64 %1) unnamed_addr #1 personality ptr @rust_eh_personality !dbg !1100 {
start:
  %2 = alloca [16 x i8], align 8
  %self.dbg.spill = alloca [8 x i8], align 8
  %path = alloca [16 x i8], align 8
  store ptr %0, ptr %path, align 8
  %3 = getelementptr inbounds i8, ptr %path, i64 8
  store i64 %1, ptr %3, align 8
  store ptr %self, ptr %self.dbg.spill, align 8
    #dbg_declare(ptr %self.dbg.spill, !1197, !DIExpression(), !1199)
    #dbg_declare(ptr %path, !1198, !DIExpression(), !1200)
; invoke <&T as core::convert::AsRef<U>>::as_ref
  %4 = invoke { ptr, i64 } @"_ZN55_$LT$$RF$T$u20$as$u20$core..convert..AsRef$LT$U$GT$$GT$6as_ref17h5b64ed187921a57dE"(ptr align 8 %path)
          to label %bb1 unwind label %cleanup, !dbg !1201

bb4:                                              ; preds = %cleanup
  %5 = load ptr, ptr %2, align 8, !dbg !1202
  %6 = getelementptr inbounds i8, ptr %2, i64 8, !dbg !1202
  %7 = load i32, ptr %6, align 8, !dbg !1202
  %8 = insertvalue { ptr, i32 } poison, ptr %5, 0, !dbg !1202
  %9 = insertvalue { ptr, i32 } %8, i32 %7, 1, !dbg !1202
  resume { ptr, i32 } %9, !dbg !1202

cleanup:                                          ; preds = %bb1, %start
  %10 = landingpad { ptr, i32 }
          cleanup
  %11 = extractvalue { ptr, i32 } %10, 0
  %12 = extractvalue { ptr, i32 } %10, 1
  store ptr %11, ptr %2, align 8
  %13 = getelementptr inbounds i8, ptr %2, i64 8
  store i32 %12, ptr %13, align 8
  br label %bb4

bb1:                                              ; preds = %start
  %_3.0 = extractvalue { ptr, i64 } %4, 0, !dbg !1203
  %_3.1 = extractvalue { ptr, i64 } %4, 1, !dbg !1203
; invoke std::fs::OpenOptions::_open
  %14 = invoke { i64, ptr } @_ZN3std2fs11OpenOptions5_open17he22033e4adebb025E(ptr align 8 %self, ptr align 1 %_3.0, i64 %_3.1)
          to label %bb2 unwind label %cleanup, !dbg !1204

bb2:                                              ; preds = %bb1
  %_0.0 = extractvalue { i64, ptr } %14, 0, !dbg !1205
  %_0.1 = extractvalue { i64, ptr } %14, 1, !dbg !1205
  %15 = insertvalue { i64, ptr } poison, i64 %_0.0, 0, !dbg !1206
  %16 = insertvalue { i64, ptr } %15, ptr %_0.1, 1, !dbg !1206
  ret { i64, ptr } %16, !dbg !1206
}

; std::fs::File::open
; Function Attrs: uwtable
define internal { i64, ptr } @_ZN3std2fs4File4open17hd6ef4275f7c3f694E(ptr align 1 %0, i64 %1) unnamed_addr #1 personality ptr @rust_eh_personality !dbg !1207 {
start:
  %2 = alloca [16 x i8], align 8
  %self.dbg.spill = alloca [8 x i8], align 8
  %read.dbg.spill = alloca [1 x i8], align 1
  %_7 = alloca [40 x i8], align 8
  %_4 = alloca [40 x i8], align 8
  %path = alloca [16 x i8], align 8
  store ptr %0, ptr %path, align 8
  %3 = getelementptr inbounds i8, ptr %path, i64 8
  store i64 %1, ptr %3, align 8
    #dbg_declare(ptr %path, !1214, !DIExpression(), !1215)
  store i8 1, ptr %read.dbg.spill, align 1, !dbg !1216
    #dbg_declare(ptr %read.dbg.spill, !1224, !DIExpression(), !1216)
  %4 = getelementptr inbounds i8, ptr %_7, i64 32, !dbg !1226
  store i8 0, ptr %4, align 8, !dbg !1226
  %5 = getelementptr inbounds i8, ptr %_7, i64 33, !dbg !1226
  store i8 0, ptr %5, align 1, !dbg !1226
  %6 = getelementptr inbounds i8, ptr %_7, i64 34, !dbg !1226
  store i8 0, ptr %6, align 2, !dbg !1226
  %7 = getelementptr inbounds i8, ptr %_7, i64 35, !dbg !1226
  store i8 0, ptr %7, align 1, !dbg !1226
  %8 = getelementptr inbounds i8, ptr %_7, i64 36, !dbg !1226
  store i8 0, ptr %8, align 4, !dbg !1226
  %9 = getelementptr inbounds i8, ptr %_7, i64 37, !dbg !1226
  store i8 0, ptr %9, align 1, !dbg !1226
  %10 = getelementptr inbounds i8, ptr %_7, i64 16, !dbg !1226
  store i32 0, ptr %10, align 8, !dbg !1226
  %11 = load i32, ptr @anon.284cfee5410ba401389a9c2a4c0ae086.3, align 4, !dbg !1226
  %12 = load i32, ptr getelementptr inbounds (i8, ptr @anon.284cfee5410ba401389a9c2a4c0ae086.3, i64 4), align 4, !dbg !1226
  store i32 %11, ptr %_7, align 8, !dbg !1226
  %13 = getelementptr inbounds i8, ptr %_7, i64 4, !dbg !1226
  store i32 %12, ptr %13, align 4, !dbg !1226
  %14 = getelementptr inbounds i8, ptr %_7, i64 20, !dbg !1226
  store i32 0, ptr %14, align 4, !dbg !1226
  %15 = getelementptr inbounds i8, ptr %_7, i64 24, !dbg !1226
  store i32 7, ptr %15, align 8, !dbg !1226
  %16 = getelementptr inbounds i8, ptr %_7, i64 28, !dbg !1226
  store i32 0, ptr %16, align 4, !dbg !1226
  %17 = getelementptr inbounds i8, ptr %_7, i64 8, !dbg !1226
  store ptr null, ptr %17, align 8, !dbg !1226
  call void @llvm.memcpy.p0.p0.i64(ptr align 8 %_4, ptr align 8 %_7, i64 40, i1 false), !dbg !1238
  store ptr %_4, ptr %self.dbg.spill, align 8, !dbg !1237
    #dbg_declare(ptr %self.dbg.spill, !1223, !DIExpression(), !1239)
  %18 = getelementptr inbounds i8, ptr %_4, i64 32, !dbg !1240
  store i8 1, ptr %18, align 8, !dbg !1240
; invoke <&T as core::convert::AsRef<U>>::as_ref
  %19 = invoke { ptr, i64 } @"_ZN55_$LT$$RF$T$u20$as$u20$core..convert..AsRef$LT$U$GT$$GT$6as_ref17h96ea603c91923d69E"(ptr align 8 %path)
          to label %bb1 unwind label %cleanup, !dbg !1247

bb4:                                              ; preds = %cleanup
  %20 = load ptr, ptr %2, align 8, !dbg !1248
  %21 = getelementptr inbounds i8, ptr %2, i64 8, !dbg !1248
  %22 = load i32, ptr %21, align 8, !dbg !1248
  %23 = insertvalue { ptr, i32 } poison, ptr %20, 0, !dbg !1248
  %24 = insertvalue { ptr, i32 } %23, i32 %22, 1, !dbg !1248
  resume { ptr, i32 } %24, !dbg !1248

cleanup:                                          ; preds = %bb1, %start
  %25 = landingpad { ptr, i32 }
          cleanup
  %26 = extractvalue { ptr, i32 } %25, 0
  %27 = extractvalue { ptr, i32 } %25, 1
  store ptr %26, ptr %2, align 8
  %28 = getelementptr inbounds i8, ptr %2, i64 8
  store i32 %27, ptr %28, align 8
  br label %bb4

bb1:                                              ; preds = %start
  %_5.0 = extractvalue { ptr, i64 } %19, 0, !dbg !1249
  %_5.1 = extractvalue { ptr, i64 } %19, 1, !dbg !1249
; invoke std::fs::OpenOptions::open
  %29 = invoke { i64, ptr } @_ZN3std2fs11OpenOptions4open17h9cfd8ee342c95f0bE(ptr align 8 %_4, ptr align 1 %_5.0, i64 %_5.1)
          to label %bb2 unwind label %cleanup, !dbg !1250

bb2:                                              ; preds = %bb1
  %_0.0 = extractvalue { i64, ptr } %29, 0, !dbg !1237
  %_0.1 = extractvalue { i64, ptr } %29, 1, !dbg !1237
  %30 = insertvalue { i64, ptr } poison, i64 %_0.0, 0, !dbg !1251
  %31 = insertvalue { i64, ptr } %30, ptr %_0.1, 1, !dbg !1251
  ret { i64, ptr } %31, !dbg !1251
}

; std::io::error::repr_bitpacked::decode_repr
; Function Attrs: inlinehint uwtable
define internal void @_ZN3std2io5error14repr_bitpacked11decode_repr17h89d58daa84c446caE(ptr sret([16 x i8]) align 8 %_0, ptr %ptr) unnamed_addr #0 personality ptr @rust_eh_personality !dbg !1252 {
start:
  %custom.dbg.spill = alloca [8 x i8], align 8
  %self.dbg.spill7 = alloca [8 x i8], align 8
  %meta.dbg.spill = alloca [8 x i8], align 8
  %self.dbg.spill6 = alloca [8 x i8], align 8
  %0 = alloca [8 x i8], align 8
  %self.dbg.spill5 = alloca [8 x i8], align 8
  %self.dbg.spill4 = alloca [8 x i8], align 8
  %kind.dbg.spill = alloca [1 x i8], align 1
  %f.dbg.spill = alloca [8 x i8], align 8
  %1 = alloca [16 x i8], align 8
  %kind_bits.dbg.spill = alloca [4 x i8], align 4
  %code.dbg.spill = alloca [4 x i8], align 4
  %self.dbg.spill3 = alloca [8 x i8], align 8
  %count.dbg.spill2 = alloca [8 x i8], align 8
  %self.dbg.spill = alloca [8 x i8], align 8
  %count.dbg.spill1 = alloca [8 x i8], align 8
  %count.dbg.spill = alloca [8 x i8], align 8
  %make_custom.dbg.spill = alloca [0 x i8], align 1
  %ptr.dbg.spill = alloca [8 x i8], align 8
  %_21 = alloca [1 x i8], align 1
  %self = alloca [1 x i8], align 1
  %bits = alloca [8 x i8], align 8
  store ptr %ptr, ptr %ptr.dbg.spill, align 8
    #dbg_declare(ptr %ptr.dbg.spill, !1260, !DIExpression(), !1275)
    #dbg_declare(ptr %ptr.dbg.spill, !1276, !DIExpression(), !1284)
    #dbg_declare(ptr %ptr.dbg.spill, !1276, !DIExpression(), !1286)
    #dbg_declare(ptr %ptr.dbg.spill, !1288, !DIExpression(), !1302)
    #dbg_declare(ptr %make_custom.dbg.spill, !1261, !DIExpression(), !1304)
    #dbg_declare(ptr %bits, !1262, !DIExpression(), !1305)
    #dbg_declare(ptr %self, !1306, !DIExpression(), !1334)
  store i64 1, ptr %count.dbg.spill, align 8, !dbg !1336
    #dbg_declare(ptr %count.dbg.spill, !1345, !DIExpression(), !1336)
  store i64 1, ptr %count.dbg.spill1, align 8, !dbg !1347
    #dbg_declare(ptr %count.dbg.spill1, !1354, !DIExpression(), !1347)
  store i64 1, ptr %self.dbg.spill, align 8, !dbg !1356
    #dbg_declare(ptr %self.dbg.spill, !1364, !DIExpression(), !1356)
  store i64 -1, ptr %count.dbg.spill2, align 8, !dbg !1366
    #dbg_declare(ptr %count.dbg.spill2, !1372, !DIExpression(), !1366)
  store i8 1, ptr %_21, align 1, !dbg !1374
  store ptr %ptr, ptr %self.dbg.spill3, align 8, !dbg !1375
    #dbg_declare(ptr %self.dbg.spill3, !1376, !DIExpression(), !1381)
    #dbg_declare(ptr %self.dbg.spill3, !1344, !DIExpression(), !1383)
    #dbg_declare(ptr %self.dbg.spill3, !1384, !DIExpression(), !1391)
  %2 = ptrtoint ptr %ptr to i64, !dbg !1393
  store i64 %2, ptr %bits, align 8, !dbg !1393
  %3 = load i64, ptr %bits, align 8, !dbg !1394
  %_5 = and i64 %3, 3, !dbg !1394
  switch i64 %_5, label %bb1 [
    i64 2, label %bb5
    i64 3, label %bb4
    i64 0, label %bb3
    i64 1, label %bb2
  ], !dbg !1395

bb1:                                              ; preds = %start
; invoke core::panicking::panic
  invoke void @_ZN4core9panicking5panic17hb79faf060e3d4a3fE(ptr align 1 @alloc_a500d906b91607583596fa15e63c2ada, i64 40, ptr align 8 @alloc_5e8372a7635a49c7175a6a37f8960d30) #17
          to label %unreachable unwind label %cleanup, !dbg !1396

bb5:                                              ; preds = %start
  %_8 = load i64, ptr %bits, align 8, !dbg !1397
  %_7 = ashr i64 %_8, 32, !dbg !1398
  %code = trunc i64 %_7 to i32, !dbg !1398
  store i32 %code, ptr %code.dbg.spill, align 4, !dbg !1398
    #dbg_declare(ptr %code.dbg.spill, !1264, !DIExpression(), !1399)
  %4 = getelementptr inbounds i8, ptr %_0, i64 4, !dbg !1400
  store i32 %code, ptr %4, align 4, !dbg !1400
  store i8 0, ptr %_0, align 8, !dbg !1400
  br label %bb10, !dbg !1401

bb4:                                              ; preds = %start
  %5 = load i64, ptr %bits, align 8, !dbg !1402
  %_10 = lshr i64 %5, 32, !dbg !1402
  %kind_bits = trunc i64 %_10 to i32, !dbg !1402
  store i32 %kind_bits, ptr %kind_bits.dbg.spill, align 4, !dbg !1402
    #dbg_declare(ptr %kind_bits.dbg.spill, !1266, !DIExpression(), !1403)
; invoke std::io::error::repr_bitpacked::kind_from_prim
  %6 = invoke i8 @_ZN3std2io5error14repr_bitpacked14kind_from_prim17h991a72a506d48625E(i32 %kind_bits)
          to label %bb6 unwind label %cleanup, !dbg !1404

bb3:                                              ; preds = %start
  store ptr %ptr, ptr %self.dbg.spill4, align 8, !dbg !1405
    #dbg_declare(ptr %self.dbg.spill4, !1406, !DIExpression(), !1413)
  %7 = getelementptr inbounds i8, ptr %_0, i64 8, !dbg !1415
  store ptr %ptr, ptr %7, align 8, !dbg !1415
  store i8 2, ptr %_0, align 8, !dbg !1415
  br label %bb10, !dbg !1401

bb2:                                              ; preds = %start
  store ptr %ptr, ptr %self.dbg.spill5, align 8, !dbg !1416
    #dbg_declare(ptr %self.dbg.spill5, !1353, !DIExpression(), !1417)
    #dbg_declare(ptr %self.dbg.spill5, !1371, !DIExpression(), !1418)
  %8 = getelementptr i8, ptr %ptr, i64 -1, !dbg !1419
  store ptr %8, ptr %0, align 8, !dbg !1419
  %_35 = load ptr, ptr %0, align 8, !dbg !1419
  store ptr %_35, ptr %self.dbg.spill6, align 8, !dbg !1419
    #dbg_declare(ptr %self.dbg.spill6, !1420, !DIExpression(), !1428)
  store ptr %ptr, ptr %meta.dbg.spill, align 8, !dbg !1430
    #dbg_declare(ptr %meta.dbg.spill, !1425, !DIExpression(), !1431)
    #dbg_declare(ptr %meta.dbg.spill, !1432, !DIExpression(), !1439)
  store ptr %_35, ptr %self.dbg.spill7, align 8, !dbg !1441
    #dbg_declare(ptr %self.dbg.spill7, !1442, !DIExpression(), !1449)
  store ptr %_35, ptr %custom.dbg.spill, align 8, !dbg !1451
    #dbg_declare(ptr %custom.dbg.spill, !1270, !DIExpression(), !1452)
  store i8 0, ptr %_21, align 1, !dbg !1453
; invoke <std::io::error::repr_bitpacked::Repr as core::ops::drop::Drop>::drop::{{closure}}
  %_17 = invoke align 8 ptr @"_ZN78_$LT$std..io..error..repr_bitpacked..Repr$u20$as$u20$core..ops..drop..Drop$GT$4drop28_$u7b$$u7b$closure$u7d$$u7d$17hdc91648a23031152E"(ptr %_35)
          to label %bb7 unwind label %cleanup, !dbg !1453

bb10:                                             ; preds = %bb3, %bb15, %bb5
  br label %bb8, !dbg !1401

bb12:                                             ; preds = %cleanup
  %9 = load i8, ptr %_21, align 1, !dbg !1401
  %10 = trunc nuw i8 %9 to i1, !dbg !1401
  br i1 %10, label %bb11, label %bb9, !dbg !1401

cleanup:                                          ; preds = %bb1, %bb2, %bb4
  %11 = landingpad { ptr, i32 }
          cleanup
  %12 = extractvalue { ptr, i32 } %11, 0
  %13 = extractvalue { ptr, i32 } %11, 1
  store ptr %12, ptr %1, align 8
  %14 = getelementptr inbounds i8, ptr %1, i64 8
  store i32 %13, ptr %14, align 8
  br label %bb12

bb6:                                              ; preds = %bb4
  store i8 %6, ptr %self, align 1, !dbg !1404
  store ptr %bits, ptr %f.dbg.spill, align 8, !dbg !1454
    #dbg_declare(ptr %f.dbg.spill, !1331, !DIExpression(), !1455)
    #dbg_declare(ptr %f.dbg.spill, !1456, !DIExpression(DW_OP_deref), !1532)
  %15 = load i8, ptr %self, align 1, !dbg !1534
  %16 = icmp eq i8 %15, 42, !dbg !1534
  %_23 = select i1 %16, i64 0, i64 1, !dbg !1534
  %17 = trunc nuw i64 %_23 to i1, !dbg !1535
  br i1 %17, label %bb15, label %bb14, !dbg !1535

bb15:                                             ; preds = %bb6
  %kind = load i8, ptr %self, align 1, !dbg !1536
  store i8 %kind, ptr %kind.dbg.spill, align 1, !dbg !1536
    #dbg_declare(ptr %kind.dbg.spill, !1268, !DIExpression(), !1537)
    #dbg_declare(ptr %kind.dbg.spill, !1332, !DIExpression(), !1538)
  %18 = getelementptr inbounds i8, ptr %_0, i64 1, !dbg !1539
  store i8 %kind, ptr %18, align 1, !dbg !1539
  store i8 1, ptr %_0, align 8, !dbg !1539
  br label %bb10, !dbg !1401

bb14:                                             ; preds = %bb6
; call core::hint::unreachable_unchecked::precondition_check
  call void @_ZN4core4hint21unreachable_unchecked18precondition_check17h0f418dd4a3220488E(ptr align 8 @alloc_eec8bab14789dcbf11d2abb0f927edcd) #14, !dbg !1540
  br label %bb13, !dbg !1540

bb13:                                             ; preds = %bb14
  unreachable, !dbg !1548

bb8:                                              ; preds = %bb7, %bb10
  ret void, !dbg !1550

bb7:                                              ; preds = %bb2
  %19 = getelementptr inbounds i8, ptr %_0, i64 8, !dbg !1551
  store ptr %_17, ptr %19, align 8, !dbg !1551
  store i8 3, ptr %_0, align 8, !dbg !1551
  br label %bb8, !dbg !1401

unreachable:                                      ; preds = %bb1
  unreachable

bb9:                                              ; preds = %bb11, %bb12
  %20 = load ptr, ptr %1, align 8, !dbg !1552
  %21 = getelementptr inbounds i8, ptr %1, i64 8, !dbg !1552
  %22 = load i32, ptr %21, align 8, !dbg !1552
  %23 = insertvalue { ptr, i32 } poison, ptr %20, 0, !dbg !1552
  %24 = insertvalue { ptr, i32 } %23, i32 %22, 1, !dbg !1552
  resume { ptr, i32 } %24, !dbg !1552

bb11:                                             ; preds = %bb12
  br label %bb9, !dbg !1401
}

; std::io::error::repr_bitpacked::kind_from_prim
; Function Attrs: inlinehint uwtable
define internal i8 @_ZN3std2io5error14repr_bitpacked14kind_from_prim17h991a72a506d48625E(i32 %0) unnamed_addr #0 !dbg !1553 {
start:
  %v.dbg.spill124 = alloca [4 x i8], align 4
  %v.dbg.spill122 = alloca [8 x i8], align 8
  %v.dbg.spill121 = alloca [4 x i8], align 4
  %v.dbg.spill119 = alloca [8 x i8], align 8
  %v.dbg.spill118 = alloca [4 x i8], align 4
  %v.dbg.spill116 = alloca [8 x i8], align 8
  %v.dbg.spill115 = alloca [4 x i8], align 4
  %v.dbg.spill113 = alloca [8 x i8], align 8
  %v.dbg.spill112 = alloca [4 x i8], align 4
  %v.dbg.spill110 = alloca [8 x i8], align 8
  %v.dbg.spill109 = alloca [4 x i8], align 4
  %v.dbg.spill107 = alloca [8 x i8], align 8
  %v.dbg.spill106 = alloca [4 x i8], align 4
  %v.dbg.spill104 = alloca [8 x i8], align 8
  %v.dbg.spill103 = alloca [4 x i8], align 4
  %v.dbg.spill101 = alloca [8 x i8], align 8
  %v.dbg.spill100 = alloca [4 x i8], align 4
  %v.dbg.spill98 = alloca [8 x i8], align 8
  %v.dbg.spill97 = alloca [4 x i8], align 4
  %v.dbg.spill95 = alloca [8 x i8], align 8
  %v.dbg.spill94 = alloca [4 x i8], align 4
  %v.dbg.spill92 = alloca [8 x i8], align 8
  %v.dbg.spill91 = alloca [4 x i8], align 4
  %v.dbg.spill89 = alloca [8 x i8], align 8
  %v.dbg.spill88 = alloca [4 x i8], align 4
  %v.dbg.spill86 = alloca [8 x i8], align 8
  %v.dbg.spill85 = alloca [4 x i8], align 4
  %v.dbg.spill83 = alloca [8 x i8], align 8
  %v.dbg.spill82 = alloca [4 x i8], align 4
  %v.dbg.spill80 = alloca [8 x i8], align 8
  %v.dbg.spill79 = alloca [4 x i8], align 4
  %v.dbg.spill77 = alloca [8 x i8], align 8
  %v.dbg.spill76 = alloca [4 x i8], align 4
  %v.dbg.spill74 = alloca [8 x i8], align 8
  %v.dbg.spill73 = alloca [4 x i8], align 4
  %v.dbg.spill71 = alloca [8 x i8], align 8
  %v.dbg.spill70 = alloca [4 x i8], align 4
  %v.dbg.spill68 = alloca [8 x i8], align 8
  %v.dbg.spill67 = alloca [4 x i8], align 4
  %v.dbg.spill65 = alloca [8 x i8], align 8
  %v.dbg.spill64 = alloca [4 x i8], align 4
  %v.dbg.spill62 = alloca [8 x i8], align 8
  %v.dbg.spill61 = alloca [4 x i8], align 4
  %v.dbg.spill59 = alloca [8 x i8], align 8
  %v.dbg.spill58 = alloca [4 x i8], align 4
  %v.dbg.spill56 = alloca [8 x i8], align 8
  %v.dbg.spill55 = alloca [4 x i8], align 4
  %v.dbg.spill53 = alloca [8 x i8], align 8
  %v.dbg.spill52 = alloca [4 x i8], align 4
  %v.dbg.spill50 = alloca [8 x i8], align 8
  %v.dbg.spill49 = alloca [4 x i8], align 4
  %v.dbg.spill47 = alloca [8 x i8], align 8
  %v.dbg.spill46 = alloca [4 x i8], align 4
  %v.dbg.spill44 = alloca [8 x i8], align 8
  %v.dbg.spill43 = alloca [4 x i8], align 4
  %v.dbg.spill41 = alloca [8 x i8], align 8
  %v.dbg.spill40 = alloca [4 x i8], align 4
  %v.dbg.spill38 = alloca [8 x i8], align 8
  %v.dbg.spill37 = alloca [4 x i8], align 4
  %v.dbg.spill35 = alloca [8 x i8], align 8
  %v.dbg.spill34 = alloca [4 x i8], align 4
  %v.dbg.spill32 = alloca [8 x i8], align 8
  %v.dbg.spill31 = alloca [4 x i8], align 4
  %v.dbg.spill29 = alloca [8 x i8], align 8
  %v.dbg.spill28 = alloca [4 x i8], align 4
  %v.dbg.spill26 = alloca [8 x i8], align 8
  %v.dbg.spill25 = alloca [4 x i8], align 4
  %v.dbg.spill23 = alloca [8 x i8], align 8
  %v.dbg.spill22 = alloca [4 x i8], align 4
  %v.dbg.spill20 = alloca [8 x i8], align 8
  %v.dbg.spill19 = alloca [4 x i8], align 4
  %v.dbg.spill17 = alloca [8 x i8], align 8
  %v.dbg.spill16 = alloca [4 x i8], align 4
  %v.dbg.spill14 = alloca [8 x i8], align 8
  %v.dbg.spill13 = alloca [4 x i8], align 4
  %v.dbg.spill11 = alloca [8 x i8], align 8
  %v.dbg.spill10 = alloca [4 x i8], align 4
  %v.dbg.spill8 = alloca [8 x i8], align 8
  %v.dbg.spill7 = alloca [4 x i8], align 4
  %v.dbg.spill5 = alloca [8 x i8], align 8
  %v.dbg.spill4 = alloca [4 x i8], align 4
  %v.dbg.spill2 = alloca [8 x i8], align 8
  %v.dbg.spill1 = alloca [4 x i8], align 4
  %v.dbg.spill = alloca [8 x i8], align 8
  %_0 = alloca [1 x i8], align 1
  %ek = alloca [4 x i8], align 4
  store i32 %0, ptr %ek, align 4
    #dbg_declare(ptr %ek, !1557, !DIExpression(), !1685)
  store ptr %ek, ptr %v.dbg.spill, align 8, !dbg !1686
    #dbg_declare(ptr %v.dbg.spill, !1560, !DIExpression(), !1687)
  %1 = load i32, ptr %ek, align 4, !dbg !1688
  %2 = icmp eq i32 %1, 0, !dbg !1688
  br i1 %2, label %bb1, label %bb2, !dbg !1688

bb1:                                              ; preds = %start
  %v = load i32, ptr %ek, align 4, !dbg !1686
  store i32 %v, ptr %v.dbg.spill1, align 4, !dbg !1686
    #dbg_declare(ptr %v.dbg.spill1, !1558, !DIExpression(), !1687)
  store i8 0, ptr %_0, align 1, !dbg !1689
  br label %bb85, !dbg !1690

bb2:                                              ; preds = %start
  store ptr %ek, ptr %v.dbg.spill2, align 8, !dbg !1686
    #dbg_declare(ptr %v.dbg.spill2, !1564, !DIExpression(), !1691)
  %3 = load i32, ptr %ek, align 4, !dbg !1688
  %4 = icmp eq i32 %3, 1, !dbg !1688
  br i1 %4, label %bb3, label %bb4, !dbg !1688

bb85:                                             ; preds = %bb84, %bb83, %bb81, %bb79, %bb77, %bb75, %bb73, %bb71, %bb69, %bb67, %bb65, %bb63, %bb61, %bb59, %bb57, %bb55, %bb53, %bb51, %bb49, %bb47, %bb45, %bb43, %bb41, %bb39, %bb37, %bb35, %bb33, %bb31, %bb29, %bb27, %bb25, %bb23, %bb21, %bb19, %bb17, %bb15, %bb13, %bb11, %bb9, %bb7, %bb5, %bb3, %bb1
  %5 = load i8, ptr %_0, align 1, !dbg !1692
  ret i8 %5, !dbg !1692

bb3:                                              ; preds = %bb2
  %v3 = load i32, ptr %ek, align 4, !dbg !1686
  store i32 %v3, ptr %v.dbg.spill4, align 4, !dbg !1686
    #dbg_declare(ptr %v.dbg.spill4, !1562, !DIExpression(), !1691)
  store i8 1, ptr %_0, align 1, !dbg !1693
  br label %bb85, !dbg !1690

bb4:                                              ; preds = %bb2
  store ptr %ek, ptr %v.dbg.spill5, align 8, !dbg !1686
    #dbg_declare(ptr %v.dbg.spill5, !1567, !DIExpression(), !1694)
  %6 = load i32, ptr %ek, align 4, !dbg !1688
  %7 = icmp eq i32 %6, 2, !dbg !1688
  br i1 %7, label %bb5, label %bb6, !dbg !1688

bb5:                                              ; preds = %bb4
  %v6 = load i32, ptr %ek, align 4, !dbg !1686
  store i32 %v6, ptr %v.dbg.spill7, align 4, !dbg !1686
    #dbg_declare(ptr %v.dbg.spill7, !1565, !DIExpression(), !1694)
  store i8 2, ptr %_0, align 1, !dbg !1695
  br label %bb85, !dbg !1690

bb6:                                              ; preds = %bb4
  store ptr %ek, ptr %v.dbg.spill8, align 8, !dbg !1686
    #dbg_declare(ptr %v.dbg.spill8, !1570, !DIExpression(), !1696)
  %8 = load i32, ptr %ek, align 4, !dbg !1688
  %9 = icmp eq i32 %8, 3, !dbg !1688
  br i1 %9, label %bb7, label %bb8, !dbg !1688

bb7:                                              ; preds = %bb6
  %v9 = load i32, ptr %ek, align 4, !dbg !1686
  store i32 %v9, ptr %v.dbg.spill10, align 4, !dbg !1686
    #dbg_declare(ptr %v.dbg.spill10, !1568, !DIExpression(), !1696)
  store i8 3, ptr %_0, align 1, !dbg !1697
  br label %bb85, !dbg !1690

bb8:                                              ; preds = %bb6
  store ptr %ek, ptr %v.dbg.spill11, align 8, !dbg !1686
    #dbg_declare(ptr %v.dbg.spill11, !1573, !DIExpression(), !1698)
  %10 = load i32, ptr %ek, align 4, !dbg !1688
  %11 = icmp eq i32 %10, 4, !dbg !1688
  br i1 %11, label %bb9, label %bb10, !dbg !1688

bb9:                                              ; preds = %bb8
  %v12 = load i32, ptr %ek, align 4, !dbg !1686
  store i32 %v12, ptr %v.dbg.spill13, align 4, !dbg !1686
    #dbg_declare(ptr %v.dbg.spill13, !1571, !DIExpression(), !1698)
  store i8 4, ptr %_0, align 1, !dbg !1699
  br label %bb85, !dbg !1690

bb10:                                             ; preds = %bb8
  store ptr %ek, ptr %v.dbg.spill14, align 8, !dbg !1686
    #dbg_declare(ptr %v.dbg.spill14, !1576, !DIExpression(), !1700)
  %12 = load i32, ptr %ek, align 4, !dbg !1688
  %13 = icmp eq i32 %12, 5, !dbg !1688
  br i1 %13, label %bb11, label %bb12, !dbg !1688

bb11:                                             ; preds = %bb10
  %v15 = load i32, ptr %ek, align 4, !dbg !1686
  store i32 %v15, ptr %v.dbg.spill16, align 4, !dbg !1686
    #dbg_declare(ptr %v.dbg.spill16, !1574, !DIExpression(), !1700)
  store i8 5, ptr %_0, align 1, !dbg !1701
  br label %bb85, !dbg !1690

bb12:                                             ; preds = %bb10
  store ptr %ek, ptr %v.dbg.spill17, align 8, !dbg !1686
    #dbg_declare(ptr %v.dbg.spill17, !1579, !DIExpression(), !1702)
  %14 = load i32, ptr %ek, align 4, !dbg !1688
  %15 = icmp eq i32 %14, 6, !dbg !1688
  br i1 %15, label %bb13, label %bb14, !dbg !1688

bb13:                                             ; preds = %bb12
  %v18 = load i32, ptr %ek, align 4, !dbg !1686
  store i32 %v18, ptr %v.dbg.spill19, align 4, !dbg !1686
    #dbg_declare(ptr %v.dbg.spill19, !1577, !DIExpression(), !1702)
  store i8 6, ptr %_0, align 1, !dbg !1703
  br label %bb85, !dbg !1690

bb14:                                             ; preds = %bb12
  store ptr %ek, ptr %v.dbg.spill20, align 8, !dbg !1686
    #dbg_declare(ptr %v.dbg.spill20, !1582, !DIExpression(), !1704)
  %16 = load i32, ptr %ek, align 4, !dbg !1688
  %17 = icmp eq i32 %16, 7, !dbg !1688
  br i1 %17, label %bb15, label %bb16, !dbg !1688

bb15:                                             ; preds = %bb14
  %v21 = load i32, ptr %ek, align 4, !dbg !1686
  store i32 %v21, ptr %v.dbg.spill22, align 4, !dbg !1686
    #dbg_declare(ptr %v.dbg.spill22, !1580, !DIExpression(), !1704)
  store i8 7, ptr %_0, align 1, !dbg !1705
  br label %bb85, !dbg !1690

bb16:                                             ; preds = %bb14
  store ptr %ek, ptr %v.dbg.spill23, align 8, !dbg !1686
    #dbg_declare(ptr %v.dbg.spill23, !1585, !DIExpression(), !1706)
  %18 = load i32, ptr %ek, align 4, !dbg !1688
  %19 = icmp eq i32 %18, 8, !dbg !1688
  br i1 %19, label %bb17, label %bb18, !dbg !1688

bb17:                                             ; preds = %bb16
  %v24 = load i32, ptr %ek, align 4, !dbg !1686
  store i32 %v24, ptr %v.dbg.spill25, align 4, !dbg !1686
    #dbg_declare(ptr %v.dbg.spill25, !1583, !DIExpression(), !1706)
  store i8 8, ptr %_0, align 1, !dbg !1707
  br label %bb85, !dbg !1690

bb18:                                             ; preds = %bb16
  store ptr %ek, ptr %v.dbg.spill26, align 8, !dbg !1686
    #dbg_declare(ptr %v.dbg.spill26, !1588, !DIExpression(), !1708)
  %20 = load i32, ptr %ek, align 4, !dbg !1688
  %21 = icmp eq i32 %20, 9, !dbg !1688
  br i1 %21, label %bb19, label %bb20, !dbg !1688

bb19:                                             ; preds = %bb18
  %v27 = load i32, ptr %ek, align 4, !dbg !1686
  store i32 %v27, ptr %v.dbg.spill28, align 4, !dbg !1686
    #dbg_declare(ptr %v.dbg.spill28, !1586, !DIExpression(), !1708)
  store i8 9, ptr %_0, align 1, !dbg !1709
  br label %bb85, !dbg !1690

bb20:                                             ; preds = %bb18
  store ptr %ek, ptr %v.dbg.spill29, align 8, !dbg !1686
    #dbg_declare(ptr %v.dbg.spill29, !1591, !DIExpression(), !1710)
  %22 = load i32, ptr %ek, align 4, !dbg !1688
  %23 = icmp eq i32 %22, 10, !dbg !1688
  br i1 %23, label %bb21, label %bb22, !dbg !1688

bb21:                                             ; preds = %bb20
  %v30 = load i32, ptr %ek, align 4, !dbg !1686
  store i32 %v30, ptr %v.dbg.spill31, align 4, !dbg !1686
    #dbg_declare(ptr %v.dbg.spill31, !1589, !DIExpression(), !1710)
  store i8 10, ptr %_0, align 1, !dbg !1711
  br label %bb85, !dbg !1690

bb22:                                             ; preds = %bb20
  store ptr %ek, ptr %v.dbg.spill32, align 8, !dbg !1686
    #dbg_declare(ptr %v.dbg.spill32, !1594, !DIExpression(), !1712)
  %24 = load i32, ptr %ek, align 4, !dbg !1688
  %25 = icmp eq i32 %24, 11, !dbg !1688
  br i1 %25, label %bb23, label %bb24, !dbg !1688

bb23:                                             ; preds = %bb22
  %v33 = load i32, ptr %ek, align 4, !dbg !1686
  store i32 %v33, ptr %v.dbg.spill34, align 4, !dbg !1686
    #dbg_declare(ptr %v.dbg.spill34, !1592, !DIExpression(), !1712)
  store i8 11, ptr %_0, align 1, !dbg !1713
  br label %bb85, !dbg !1690

bb24:                                             ; preds = %bb22
  store ptr %ek, ptr %v.dbg.spill35, align 8, !dbg !1686
    #dbg_declare(ptr %v.dbg.spill35, !1597, !DIExpression(), !1714)
  %26 = load i32, ptr %ek, align 4, !dbg !1688
  %27 = icmp eq i32 %26, 12, !dbg !1688
  br i1 %27, label %bb25, label %bb26, !dbg !1688

bb25:                                             ; preds = %bb24
  %v36 = load i32, ptr %ek, align 4, !dbg !1686
  store i32 %v36, ptr %v.dbg.spill37, align 4, !dbg !1686
    #dbg_declare(ptr %v.dbg.spill37, !1595, !DIExpression(), !1714)
  store i8 12, ptr %_0, align 1, !dbg !1715
  br label %bb85, !dbg !1690

bb26:                                             ; preds = %bb24
  store ptr %ek, ptr %v.dbg.spill38, align 8, !dbg !1686
    #dbg_declare(ptr %v.dbg.spill38, !1600, !DIExpression(), !1716)
  %28 = load i32, ptr %ek, align 4, !dbg !1688
  %29 = icmp eq i32 %28, 13, !dbg !1688
  br i1 %29, label %bb27, label %bb28, !dbg !1688

bb27:                                             ; preds = %bb26
  %v39 = load i32, ptr %ek, align 4, !dbg !1686
  store i32 %v39, ptr %v.dbg.spill40, align 4, !dbg !1686
    #dbg_declare(ptr %v.dbg.spill40, !1598, !DIExpression(), !1716)
  store i8 13, ptr %_0, align 1, !dbg !1717
  br label %bb85, !dbg !1690

bb28:                                             ; preds = %bb26
  store ptr %ek, ptr %v.dbg.spill41, align 8, !dbg !1686
    #dbg_declare(ptr %v.dbg.spill41, !1603, !DIExpression(), !1718)
  %30 = load i32, ptr %ek, align 4, !dbg !1688
  %31 = icmp eq i32 %30, 14, !dbg !1688
  br i1 %31, label %bb29, label %bb30, !dbg !1688

bb29:                                             ; preds = %bb28
  %v42 = load i32, ptr %ek, align 4, !dbg !1686
  store i32 %v42, ptr %v.dbg.spill43, align 4, !dbg !1686
    #dbg_declare(ptr %v.dbg.spill43, !1601, !DIExpression(), !1718)
  store i8 14, ptr %_0, align 1, !dbg !1719
  br label %bb85, !dbg !1690

bb30:                                             ; preds = %bb28
  store ptr %ek, ptr %v.dbg.spill44, align 8, !dbg !1686
    #dbg_declare(ptr %v.dbg.spill44, !1606, !DIExpression(), !1720)
  %32 = load i32, ptr %ek, align 4, !dbg !1688
  %33 = icmp eq i32 %32, 15, !dbg !1688
  br i1 %33, label %bb31, label %bb32, !dbg !1688

bb31:                                             ; preds = %bb30
  %v45 = load i32, ptr %ek, align 4, !dbg !1686
  store i32 %v45, ptr %v.dbg.spill46, align 4, !dbg !1686
    #dbg_declare(ptr %v.dbg.spill46, !1604, !DIExpression(), !1720)
  store i8 15, ptr %_0, align 1, !dbg !1721
  br label %bb85, !dbg !1690

bb32:                                             ; preds = %bb30
  store ptr %ek, ptr %v.dbg.spill47, align 8, !dbg !1686
    #dbg_declare(ptr %v.dbg.spill47, !1609, !DIExpression(), !1722)
  %34 = load i32, ptr %ek, align 4, !dbg !1688
  %35 = icmp eq i32 %34, 16, !dbg !1688
  br i1 %35, label %bb33, label %bb34, !dbg !1688

bb33:                                             ; preds = %bb32
  %v48 = load i32, ptr %ek, align 4, !dbg !1686
  store i32 %v48, ptr %v.dbg.spill49, align 4, !dbg !1686
    #dbg_declare(ptr %v.dbg.spill49, !1607, !DIExpression(), !1722)
  store i8 16, ptr %_0, align 1, !dbg !1723
  br label %bb85, !dbg !1690

bb34:                                             ; preds = %bb32
  store ptr %ek, ptr %v.dbg.spill50, align 8, !dbg !1686
    #dbg_declare(ptr %v.dbg.spill50, !1612, !DIExpression(), !1724)
  %36 = load i32, ptr %ek, align 4, !dbg !1688
  %37 = icmp eq i32 %36, 17, !dbg !1688
  br i1 %37, label %bb35, label %bb36, !dbg !1688

bb35:                                             ; preds = %bb34
  %v51 = load i32, ptr %ek, align 4, !dbg !1686
  store i32 %v51, ptr %v.dbg.spill52, align 4, !dbg !1686
    #dbg_declare(ptr %v.dbg.spill52, !1610, !DIExpression(), !1724)
  store i8 17, ptr %_0, align 1, !dbg !1725
  br label %bb85, !dbg !1690

bb36:                                             ; preds = %bb34
  store ptr %ek, ptr %v.dbg.spill53, align 8, !dbg !1686
    #dbg_declare(ptr %v.dbg.spill53, !1615, !DIExpression(), !1726)
  %38 = load i32, ptr %ek, align 4, !dbg !1688
  %39 = icmp eq i32 %38, 18, !dbg !1688
  br i1 %39, label %bb37, label %bb38, !dbg !1688

bb37:                                             ; preds = %bb36
  %v54 = load i32, ptr %ek, align 4, !dbg !1686
  store i32 %v54, ptr %v.dbg.spill55, align 4, !dbg !1686
    #dbg_declare(ptr %v.dbg.spill55, !1613, !DIExpression(), !1726)
  store i8 18, ptr %_0, align 1, !dbg !1727
  br label %bb85, !dbg !1690

bb38:                                             ; preds = %bb36
  store ptr %ek, ptr %v.dbg.spill56, align 8, !dbg !1686
    #dbg_declare(ptr %v.dbg.spill56, !1618, !DIExpression(), !1728)
  %40 = load i32, ptr %ek, align 4, !dbg !1688
  %41 = icmp eq i32 %40, 19, !dbg !1688
  br i1 %41, label %bb39, label %bb40, !dbg !1688

bb39:                                             ; preds = %bb38
  %v57 = load i32, ptr %ek, align 4, !dbg !1686
  store i32 %v57, ptr %v.dbg.spill58, align 4, !dbg !1686
    #dbg_declare(ptr %v.dbg.spill58, !1616, !DIExpression(), !1728)
  store i8 19, ptr %_0, align 1, !dbg !1729
  br label %bb85, !dbg !1690

bb40:                                             ; preds = %bb38
  store ptr %ek, ptr %v.dbg.spill59, align 8, !dbg !1686
    #dbg_declare(ptr %v.dbg.spill59, !1621, !DIExpression(), !1730)
  %42 = load i32, ptr %ek, align 4, !dbg !1688
  %43 = icmp eq i32 %42, 20, !dbg !1688
  br i1 %43, label %bb41, label %bb42, !dbg !1688

bb41:                                             ; preds = %bb40
  %v60 = load i32, ptr %ek, align 4, !dbg !1686
  store i32 %v60, ptr %v.dbg.spill61, align 4, !dbg !1686
    #dbg_declare(ptr %v.dbg.spill61, !1619, !DIExpression(), !1730)
  store i8 20, ptr %_0, align 1, !dbg !1731
  br label %bb85, !dbg !1690

bb42:                                             ; preds = %bb40
  store ptr %ek, ptr %v.dbg.spill62, align 8, !dbg !1686
    #dbg_declare(ptr %v.dbg.spill62, !1624, !DIExpression(), !1732)
  %44 = load i32, ptr %ek, align 4, !dbg !1688
  %45 = icmp eq i32 %44, 21, !dbg !1688
  br i1 %45, label %bb43, label %bb44, !dbg !1688

bb43:                                             ; preds = %bb42
  %v63 = load i32, ptr %ek, align 4, !dbg !1686
  store i32 %v63, ptr %v.dbg.spill64, align 4, !dbg !1686
    #dbg_declare(ptr %v.dbg.spill64, !1622, !DIExpression(), !1732)
  store i8 21, ptr %_0, align 1, !dbg !1733
  br label %bb85, !dbg !1690

bb44:                                             ; preds = %bb42
  store ptr %ek, ptr %v.dbg.spill65, align 8, !dbg !1686
    #dbg_declare(ptr %v.dbg.spill65, !1627, !DIExpression(), !1734)
  %46 = load i32, ptr %ek, align 4, !dbg !1688
  %47 = icmp eq i32 %46, 22, !dbg !1688
  br i1 %47, label %bb45, label %bb46, !dbg !1688

bb45:                                             ; preds = %bb44
  %v66 = load i32, ptr %ek, align 4, !dbg !1686
  store i32 %v66, ptr %v.dbg.spill67, align 4, !dbg !1686
    #dbg_declare(ptr %v.dbg.spill67, !1625, !DIExpression(), !1734)
  store i8 22, ptr %_0, align 1, !dbg !1735
  br label %bb85, !dbg !1690

bb46:                                             ; preds = %bb44
  store ptr %ek, ptr %v.dbg.spill68, align 8, !dbg !1686
    #dbg_declare(ptr %v.dbg.spill68, !1630, !DIExpression(), !1736)
  %48 = load i32, ptr %ek, align 4, !dbg !1688
  %49 = icmp eq i32 %48, 23, !dbg !1688
  br i1 %49, label %bb47, label %bb48, !dbg !1688

bb47:                                             ; preds = %bb46
  %v69 = load i32, ptr %ek, align 4, !dbg !1686
  store i32 %v69, ptr %v.dbg.spill70, align 4, !dbg !1686
    #dbg_declare(ptr %v.dbg.spill70, !1628, !DIExpression(), !1736)
  store i8 23, ptr %_0, align 1, !dbg !1737
  br label %bb85, !dbg !1690

bb48:                                             ; preds = %bb46
  store ptr %ek, ptr %v.dbg.spill71, align 8, !dbg !1686
    #dbg_declare(ptr %v.dbg.spill71, !1633, !DIExpression(), !1738)
  %50 = load i32, ptr %ek, align 4, !dbg !1688
  %51 = icmp eq i32 %50, 24, !dbg !1688
  br i1 %51, label %bb49, label %bb50, !dbg !1688

bb49:                                             ; preds = %bb48
  %v72 = load i32, ptr %ek, align 4, !dbg !1686
  store i32 %v72, ptr %v.dbg.spill73, align 4, !dbg !1686
    #dbg_declare(ptr %v.dbg.spill73, !1631, !DIExpression(), !1738)
  store i8 24, ptr %_0, align 1, !dbg !1739
  br label %bb85, !dbg !1690

bb50:                                             ; preds = %bb48
  store ptr %ek, ptr %v.dbg.spill74, align 8, !dbg !1686
    #dbg_declare(ptr %v.dbg.spill74, !1636, !DIExpression(), !1740)
  %52 = load i32, ptr %ek, align 4, !dbg !1688
  %53 = icmp eq i32 %52, 25, !dbg !1688
  br i1 %53, label %bb51, label %bb52, !dbg !1688

bb51:                                             ; preds = %bb50
  %v75 = load i32, ptr %ek, align 4, !dbg !1686
  store i32 %v75, ptr %v.dbg.spill76, align 4, !dbg !1686
    #dbg_declare(ptr %v.dbg.spill76, !1634, !DIExpression(), !1740)
  store i8 25, ptr %_0, align 1, !dbg !1741
  br label %bb85, !dbg !1690

bb52:                                             ; preds = %bb50
  store ptr %ek, ptr %v.dbg.spill77, align 8, !dbg !1686
    #dbg_declare(ptr %v.dbg.spill77, !1639, !DIExpression(), !1742)
  %54 = load i32, ptr %ek, align 4, !dbg !1688
  %55 = icmp eq i32 %54, 26, !dbg !1688
  br i1 %55, label %bb53, label %bb54, !dbg !1688

bb53:                                             ; preds = %bb52
  %v78 = load i32, ptr %ek, align 4, !dbg !1686
  store i32 %v78, ptr %v.dbg.spill79, align 4, !dbg !1686
    #dbg_declare(ptr %v.dbg.spill79, !1637, !DIExpression(), !1742)
  store i8 26, ptr %_0, align 1, !dbg !1743
  br label %bb85, !dbg !1690

bb54:                                             ; preds = %bb52
  store ptr %ek, ptr %v.dbg.spill80, align 8, !dbg !1686
    #dbg_declare(ptr %v.dbg.spill80, !1642, !DIExpression(), !1744)
  %56 = load i32, ptr %ek, align 4, !dbg !1688
  %57 = icmp eq i32 %56, 27, !dbg !1688
  br i1 %57, label %bb55, label %bb56, !dbg !1688

bb55:                                             ; preds = %bb54
  %v81 = load i32, ptr %ek, align 4, !dbg !1686
  store i32 %v81, ptr %v.dbg.spill82, align 4, !dbg !1686
    #dbg_declare(ptr %v.dbg.spill82, !1640, !DIExpression(), !1744)
  store i8 27, ptr %_0, align 1, !dbg !1745
  br label %bb85, !dbg !1690

bb56:                                             ; preds = %bb54
  store ptr %ek, ptr %v.dbg.spill83, align 8, !dbg !1686
    #dbg_declare(ptr %v.dbg.spill83, !1645, !DIExpression(), !1746)
  %58 = load i32, ptr %ek, align 4, !dbg !1688
  %59 = icmp eq i32 %58, 28, !dbg !1688
  br i1 %59, label %bb57, label %bb58, !dbg !1688

bb57:                                             ; preds = %bb56
  %v84 = load i32, ptr %ek, align 4, !dbg !1686
  store i32 %v84, ptr %v.dbg.spill85, align 4, !dbg !1686
    #dbg_declare(ptr %v.dbg.spill85, !1643, !DIExpression(), !1746)
  store i8 28, ptr %_0, align 1, !dbg !1747
  br label %bb85, !dbg !1690

bb58:                                             ; preds = %bb56
  store ptr %ek, ptr %v.dbg.spill86, align 8, !dbg !1686
    #dbg_declare(ptr %v.dbg.spill86, !1648, !DIExpression(), !1748)
  %60 = load i32, ptr %ek, align 4, !dbg !1688
  %61 = icmp eq i32 %60, 29, !dbg !1688
  br i1 %61, label %bb59, label %bb60, !dbg !1688

bb59:                                             ; preds = %bb58
  %v87 = load i32, ptr %ek, align 4, !dbg !1686
  store i32 %v87, ptr %v.dbg.spill88, align 4, !dbg !1686
    #dbg_declare(ptr %v.dbg.spill88, !1646, !DIExpression(), !1748)
  store i8 29, ptr %_0, align 1, !dbg !1749
  br label %bb85, !dbg !1690

bb60:                                             ; preds = %bb58
  store ptr %ek, ptr %v.dbg.spill89, align 8, !dbg !1686
    #dbg_declare(ptr %v.dbg.spill89, !1651, !DIExpression(), !1750)
  %62 = load i32, ptr %ek, align 4, !dbg !1688
  %63 = icmp eq i32 %62, 30, !dbg !1688
  br i1 %63, label %bb61, label %bb62, !dbg !1688

bb61:                                             ; preds = %bb60
  %v90 = load i32, ptr %ek, align 4, !dbg !1686
  store i32 %v90, ptr %v.dbg.spill91, align 4, !dbg !1686
    #dbg_declare(ptr %v.dbg.spill91, !1649, !DIExpression(), !1750)
  store i8 30, ptr %_0, align 1, !dbg !1751
  br label %bb85, !dbg !1690

bb62:                                             ; preds = %bb60
  store ptr %ek, ptr %v.dbg.spill92, align 8, !dbg !1686
    #dbg_declare(ptr %v.dbg.spill92, !1654, !DIExpression(), !1752)
  %64 = load i32, ptr %ek, align 4, !dbg !1688
  %65 = icmp eq i32 %64, 31, !dbg !1688
  br i1 %65, label %bb63, label %bb64, !dbg !1688

bb63:                                             ; preds = %bb62
  %v93 = load i32, ptr %ek, align 4, !dbg !1686
  store i32 %v93, ptr %v.dbg.spill94, align 4, !dbg !1686
    #dbg_declare(ptr %v.dbg.spill94, !1652, !DIExpression(), !1752)
  store i8 31, ptr %_0, align 1, !dbg !1753
  br label %bb85, !dbg !1690

bb64:                                             ; preds = %bb62
  store ptr %ek, ptr %v.dbg.spill95, align 8, !dbg !1686
    #dbg_declare(ptr %v.dbg.spill95, !1657, !DIExpression(), !1754)
  %66 = load i32, ptr %ek, align 4, !dbg !1688
  %67 = icmp eq i32 %66, 32, !dbg !1688
  br i1 %67, label %bb65, label %bb66, !dbg !1688

bb65:                                             ; preds = %bb64
  %v96 = load i32, ptr %ek, align 4, !dbg !1686
  store i32 %v96, ptr %v.dbg.spill97, align 4, !dbg !1686
    #dbg_declare(ptr %v.dbg.spill97, !1655, !DIExpression(), !1754)
  store i8 32, ptr %_0, align 1, !dbg !1755
  br label %bb85, !dbg !1690

bb66:                                             ; preds = %bb64
  store ptr %ek, ptr %v.dbg.spill98, align 8, !dbg !1686
    #dbg_declare(ptr %v.dbg.spill98, !1660, !DIExpression(), !1756)
  %68 = load i32, ptr %ek, align 4, !dbg !1688
  %69 = icmp eq i32 %68, 33, !dbg !1688
  br i1 %69, label %bb67, label %bb68, !dbg !1688

bb67:                                             ; preds = %bb66
  %v99 = load i32, ptr %ek, align 4, !dbg !1686
  store i32 %v99, ptr %v.dbg.spill100, align 4, !dbg !1686
    #dbg_declare(ptr %v.dbg.spill100, !1658, !DIExpression(), !1756)
  store i8 33, ptr %_0, align 1, !dbg !1757
  br label %bb85, !dbg !1690

bb68:                                             ; preds = %bb66
  store ptr %ek, ptr %v.dbg.spill101, align 8, !dbg !1686
    #dbg_declare(ptr %v.dbg.spill101, !1663, !DIExpression(), !1758)
  %70 = load i32, ptr %ek, align 4, !dbg !1688
  %71 = icmp eq i32 %70, 34, !dbg !1688
  br i1 %71, label %bb69, label %bb70, !dbg !1688

bb69:                                             ; preds = %bb68
  %v102 = load i32, ptr %ek, align 4, !dbg !1686
  store i32 %v102, ptr %v.dbg.spill103, align 4, !dbg !1686
    #dbg_declare(ptr %v.dbg.spill103, !1661, !DIExpression(), !1758)
  store i8 34, ptr %_0, align 1, !dbg !1759
  br label %bb85, !dbg !1690

bb70:                                             ; preds = %bb68
  store ptr %ek, ptr %v.dbg.spill104, align 8, !dbg !1686
    #dbg_declare(ptr %v.dbg.spill104, !1666, !DIExpression(), !1760)
  %72 = load i32, ptr %ek, align 4, !dbg !1688
  %73 = icmp eq i32 %72, 35, !dbg !1688
  br i1 %73, label %bb71, label %bb72, !dbg !1688

bb71:                                             ; preds = %bb70
  %v105 = load i32, ptr %ek, align 4, !dbg !1686
  store i32 %v105, ptr %v.dbg.spill106, align 4, !dbg !1686
    #dbg_declare(ptr %v.dbg.spill106, !1664, !DIExpression(), !1760)
  store i8 35, ptr %_0, align 1, !dbg !1761
  br label %bb85, !dbg !1690

bb72:                                             ; preds = %bb70
  store ptr %ek, ptr %v.dbg.spill107, align 8, !dbg !1686
    #dbg_declare(ptr %v.dbg.spill107, !1669, !DIExpression(), !1762)
  %74 = load i32, ptr %ek, align 4, !dbg !1688
  %75 = icmp eq i32 %74, 40, !dbg !1688
  br i1 %75, label %bb73, label %bb74, !dbg !1688

bb73:                                             ; preds = %bb72
  %v108 = load i32, ptr %ek, align 4, !dbg !1686
  store i32 %v108, ptr %v.dbg.spill109, align 4, !dbg !1686
    #dbg_declare(ptr %v.dbg.spill109, !1667, !DIExpression(), !1762)
  store i8 40, ptr %_0, align 1, !dbg !1763
  br label %bb85, !dbg !1690

bb74:                                             ; preds = %bb72
  store ptr %ek, ptr %v.dbg.spill110, align 8, !dbg !1686
    #dbg_declare(ptr %v.dbg.spill110, !1672, !DIExpression(), !1764)
  %76 = load i32, ptr %ek, align 4, !dbg !1688
  %77 = icmp eq i32 %76, 37, !dbg !1688
  br i1 %77, label %bb75, label %bb76, !dbg !1688

bb75:                                             ; preds = %bb74
  %v111 = load i32, ptr %ek, align 4, !dbg !1686
  store i32 %v111, ptr %v.dbg.spill112, align 4, !dbg !1686
    #dbg_declare(ptr %v.dbg.spill112, !1670, !DIExpression(), !1764)
  store i8 37, ptr %_0, align 1, !dbg !1765
  br label %bb85, !dbg !1690

bb76:                                             ; preds = %bb74
  store ptr %ek, ptr %v.dbg.spill113, align 8, !dbg !1686
    #dbg_declare(ptr %v.dbg.spill113, !1675, !DIExpression(), !1766)
  %78 = load i32, ptr %ek, align 4, !dbg !1688
  %79 = icmp eq i32 %78, 36, !dbg !1688
  br i1 %79, label %bb77, label %bb78, !dbg !1688

bb77:                                             ; preds = %bb76
  %v114 = load i32, ptr %ek, align 4, !dbg !1686
  store i32 %v114, ptr %v.dbg.spill115, align 4, !dbg !1686
    #dbg_declare(ptr %v.dbg.spill115, !1673, !DIExpression(), !1766)
  store i8 36, ptr %_0, align 1, !dbg !1767
  br label %bb85, !dbg !1690

bb78:                                             ; preds = %bb76
  store ptr %ek, ptr %v.dbg.spill116, align 8, !dbg !1686
    #dbg_declare(ptr %v.dbg.spill116, !1678, !DIExpression(), !1768)
  %80 = load i32, ptr %ek, align 4, !dbg !1688
  %81 = icmp eq i32 %80, 38, !dbg !1688
  br i1 %81, label %bb79, label %bb80, !dbg !1688

bb79:                                             ; preds = %bb78
  %v117 = load i32, ptr %ek, align 4, !dbg !1686
  store i32 %v117, ptr %v.dbg.spill118, align 4, !dbg !1686
    #dbg_declare(ptr %v.dbg.spill118, !1676, !DIExpression(), !1768)
  store i8 38, ptr %_0, align 1, !dbg !1769
  br label %bb85, !dbg !1690

bb80:                                             ; preds = %bb78
  store ptr %ek, ptr %v.dbg.spill119, align 8, !dbg !1686
    #dbg_declare(ptr %v.dbg.spill119, !1681, !DIExpression(), !1770)
  %82 = load i32, ptr %ek, align 4, !dbg !1688
  %83 = icmp eq i32 %82, 39, !dbg !1688
  br i1 %83, label %bb81, label %bb82, !dbg !1688

bb81:                                             ; preds = %bb80
  %v120 = load i32, ptr %ek, align 4, !dbg !1686
  store i32 %v120, ptr %v.dbg.spill121, align 4, !dbg !1686
    #dbg_declare(ptr %v.dbg.spill121, !1679, !DIExpression(), !1770)
  store i8 39, ptr %_0, align 1, !dbg !1771
  br label %bb85, !dbg !1690

bb82:                                             ; preds = %bb80
  store ptr %ek, ptr %v.dbg.spill122, align 8, !dbg !1686
    #dbg_declare(ptr %v.dbg.spill122, !1684, !DIExpression(), !1772)
  %84 = load i32, ptr %ek, align 4, !dbg !1688
  %85 = icmp eq i32 %84, 41, !dbg !1688
  br i1 %85, label %bb83, label %bb84, !dbg !1688

bb83:                                             ; preds = %bb82
  %v123 = load i32, ptr %ek, align 4, !dbg !1686
  store i32 %v123, ptr %v.dbg.spill124, align 4, !dbg !1686
    #dbg_declare(ptr %v.dbg.spill124, !1682, !DIExpression(), !1772)
  store i8 41, ptr %_0, align 1, !dbg !1773
  br label %bb85, !dbg !1690

bb84:                                             ; preds = %bb82
  store i8 42, ptr %_0, align 1, !dbg !1774
  br label %bb85, !dbg !1774
}

; std::rt::lang_start
; Function Attrs: uwtable
define hidden i64 @_ZN3std2rt10lang_start17hc123d738008abdb0E(ptr %main, i64 %argc, ptr %argv, i8 %sigpipe) unnamed_addr #1 !dbg !1775 {
start:
  %sigpipe.dbg.spill = alloca [1 x i8], align 1
  %argv.dbg.spill = alloca [8 x i8], align 8
  %argc.dbg.spill = alloca [8 x i8], align 8
  %main.dbg.spill = alloca [8 x i8], align 8
  %_7 = alloca [8 x i8], align 8
  store ptr %main, ptr %main.dbg.spill, align 8
    #dbg_declare(ptr %main.dbg.spill, !1781, !DIExpression(), !1787)
  store i64 %argc, ptr %argc.dbg.spill, align 8
    #dbg_declare(ptr %argc.dbg.spill, !1782, !DIExpression(), !1788)
  store ptr %argv, ptr %argv.dbg.spill, align 8
    #dbg_declare(ptr %argv.dbg.spill, !1783, !DIExpression(), !1789)
  store i8 %sigpipe, ptr %sigpipe.dbg.spill, align 1
    #dbg_declare(ptr %sigpipe.dbg.spill, !1784, !DIExpression(), !1790)
  store ptr %main, ptr %_7, align 8, !dbg !1791
; call std::rt::lang_start_internal
  %_0 = call i64 @_ZN3std2rt19lang_start_internal17h7be68976dcad6582E(ptr align 1 %_7, ptr align 8 @vtable.0, i64 %argc, ptr %argv, i8 %sigpipe), !dbg !1792
  ret i64 %_0, !dbg !1793
}

; std::rt::lang_start::{{closure}}
; Function Attrs: inlinehint uwtable
define internal i32 @"_ZN3std2rt10lang_start28_$u7b$$u7b$closure$u7d$$u7d$17h2a5035041e038e37E"(ptr align 8 %_1) unnamed_addr #0 !dbg !1794 {
start:
  %self.dbg.spill = alloca [4 x i8], align 4
  %_1.dbg.spill = alloca [8 x i8], align 8
  store ptr %_1, ptr %_1.dbg.spill, align 8
    #dbg_declare(ptr %_1.dbg.spill, !1799, !DIExpression(DW_OP_deref), !1800)
  %_4 = load ptr, ptr %_1, align 8, !dbg !1801
; call std::sys::backtrace::__rust_begin_short_backtrace
  %_3 = call ptr @_ZN3std3sys9backtrace28__rust_begin_short_backtrace17h7f3b8cb8cdca4abcE(ptr %_4), !dbg !1802
; call <core::result::Result<T,E> as std::process::Termination>::report
  %self = call i32 @"_ZN79_$LT$core..result..Result$LT$T$C$E$GT$$u20$as$u20$std..process..Termination$GT$6report17hd9e35c4c19137120E"(ptr %_3), !dbg !1803
  store i32 %self, ptr %self.dbg.spill, align 4, !dbg !1803
    #dbg_declare(ptr %self.dbg.spill, !1804, !DIExpression(), !1820)
  ret i32 %self, !dbg !1822
}

; std::ffi::os_str::<impl core::convert::AsRef<std::ffi::os_str::OsStr> for str>::as_ref
; Function Attrs: inlinehint uwtable
define internal { ptr, i64 } @"_ZN3std3ffi6os_str85_$LT$impl$u20$core..convert..AsRef$LT$std..ffi..os_str..OsStr$GT$$u20$for$u20$str$GT$6as_ref17h4dcb294f809bc5cfE"(ptr align 1 %self.0, i64 %self.1) unnamed_addr #0 !dbg !1823 {
start:
  %self.dbg.spill = alloca [16 x i8], align 8
  store ptr %self.0, ptr %self.dbg.spill, align 8
  %0 = getelementptr inbounds i8, ptr %self.dbg.spill, i64 8
  store i64 %self.1, ptr %0, align 8
    #dbg_declare(ptr %self.dbg.spill, !1834, !DIExpression(), !1835)
    #dbg_declare(ptr %self.dbg.spill, !1836, !DIExpression(), !1848)
    #dbg_declare(ptr %self.dbg.spill, !1850, !DIExpression(), !1862)
    #dbg_declare(ptr %self.dbg.spill, !1864, !DIExpression(), !1871)
  %1 = insertvalue { ptr, i64 } poison, ptr %self.0, 0, !dbg !1873
  %2 = insertvalue { ptr, i64 } %1, i64 %self.1, 1, !dbg !1873
  ret { ptr, i64 } %2, !dbg !1873
}

; std::sys::backtrace::__rust_begin_short_backtrace
; Function Attrs: noinline uwtable
define internal ptr @_ZN3std3sys9backtrace28__rust_begin_short_backtrace17h7f3b8cb8cdca4abcE(ptr %f) unnamed_addr #2 !dbg !1874 {
start:
  %result.dbg.spill = alloca [8 x i8], align 8
  %dummy.dbg.spill = alloca [0 x i8], align 1
  %f.dbg.spill = alloca [8 x i8], align 8
  store ptr %f, ptr %f.dbg.spill, align 8
    #dbg_declare(ptr %f.dbg.spill, !1880, !DIExpression(), !1885)
    #dbg_declare(ptr %dummy.dbg.spill, !1886, !DIExpression(), !1891)
; call core::ops::function::FnOnce::call_once
  %result = call ptr @_ZN4core3ops8function6FnOnce9call_once17h7643281b35ec6cd1E(ptr %f), !dbg !1893
  store ptr %result, ptr %result.dbg.spill, align 8, !dbg !1893
    #dbg_declare(ptr %result.dbg.spill, !1881, !DIExpression(), !1894)
  call void asm sideeffect "", "~{memory}"(), !dbg !1895, !srcloc !1896
  ret ptr %result, !dbg !1897
}

; std::path::<impl core::convert::AsRef<std::path::Path> for str>::as_ref
; Function Attrs: inlinehint uwtable
define internal { ptr, i64 } @"_ZN3std4path77_$LT$impl$u20$core..convert..AsRef$LT$std..path..Path$GT$$u20$for$u20$str$GT$6as_ref17h35280cdaf5adbbb1E"(ptr align 1 %self.0, i64 %self.1) unnamed_addr #0 !dbg !1898 {
start:
  %self.dbg.spill = alloca [16 x i8], align 8
  store ptr %self.0, ptr %self.dbg.spill, align 8
  %0 = getelementptr inbounds i8, ptr %self.dbg.spill, i64 8
  store i64 %self.1, ptr %0, align 8
    #dbg_declare(ptr %self.dbg.spill, !1904, !DIExpression(), !1905)
    #dbg_declare(ptr %self.dbg.spill, !1906, !DIExpression(), !1912)
; call std::ffi::os_str::<impl core::convert::AsRef<std::ffi::os_str::OsStr> for str>::as_ref
  %1 = call { ptr, i64 } @"_ZN3std3ffi6os_str85_$LT$impl$u20$core..convert..AsRef$LT$std..ffi..os_str..OsStr$GT$$u20$for$u20$str$GT$6as_ref17h4dcb294f809bc5cfE"(ptr align 1 %self.0, i64 %self.1), !dbg !1914
  %_4.0 = extractvalue { ptr, i64 } %1, 0, !dbg !1914
  %_4.1 = extractvalue { ptr, i64 } %1, 1, !dbg !1914
  %2 = insertvalue { ptr, i64 } poison, ptr %_4.0, 0, !dbg !1915
  %3 = insertvalue { ptr, i64 } %2, i64 %_4.1, 1, !dbg !1915
  ret { ptr, i64 } %3, !dbg !1915
}

; <F as core::str::pattern::Pattern>::into_searcher
; Function Attrs: inlinehint uwtable
define internal void @"_ZN49_$LT$F$u20$as$u20$core..str..pattern..Pattern$GT$13into_searcher17h96a07b86035d279bE"(ptr sret([40 x i8]) align 8 %_0, ptr align 1 %haystack.0, i64 %haystack.1) unnamed_addr #0 !dbg !1916 {
start:
  %haystack.dbg.spill = alloca [16 x i8], align 8
  %self.dbg.spill = alloca [0 x i8], align 1
  %_3 = alloca [40 x i8], align 8
    #dbg_declare(ptr %self.dbg.spill, !1921, !DIExpression(), !1923)
  store ptr %haystack.0, ptr %haystack.dbg.spill, align 8
  %0 = getelementptr inbounds i8, ptr %haystack.dbg.spill, i64 8
  store i64 %haystack.1, ptr %0, align 8
    #dbg_declare(ptr %haystack.dbg.spill, !1922, !DIExpression(), !1924)
; call <core::str::pattern::MultiCharEqPattern<C> as core::str::pattern::Pattern>::into_searcher
  call void @"_ZN95_$LT$core..str..pattern..MultiCharEqPattern$LT$C$GT$$u20$as$u20$core..str..pattern..Pattern$GT$13into_searcher17h3da8b534f4bf39e3E"(ptr sret([40 x i8]) align 8 %_3, ptr align 1 %haystack.0, i64 %haystack.1), !dbg !1925
  call void @llvm.memcpy.p0.p0.i64(ptr align 8 %_0, ptr align 8 %_3, i64 40, i1 false), !dbg !1926
  ret void, !dbg !1927
}

; core::intrinsics::cold_path
; Function Attrs: cold nounwind uwtable
define internal void @_ZN4core10intrinsics9cold_path17hc5e160a32f7ea70aE() unnamed_addr #3 !dbg !1928 {
start:
  ret void, !dbg !1933
}

; core::fmt::rt::Argument::new_display
; Function Attrs: inlinehint uwtable
define internal void @_ZN4core3fmt2rt8Argument11new_display17h036a92e5bedf52ccE(ptr sret([16 x i8]) align 8 %_0, ptr align 8 %x) unnamed_addr #0 !dbg !1934 {
start:
  %x.dbg.spill = alloca [8 x i8], align 8
  %_2 = alloca [16 x i8], align 8
  store ptr %x, ptr %x.dbg.spill, align 8
    #dbg_declare(ptr %x.dbg.spill, !1942, !DIExpression(), !1943)
    #dbg_declare(ptr %x.dbg.spill, !1944, !DIExpression(), !1954)
  store ptr %x, ptr %_2, align 8, !dbg !1956
  %0 = getelementptr inbounds i8, ptr %_2, i64 8, !dbg !1956
  store ptr @"_ZN67_$LT$num_bigint..biguint..BigUint$u20$as$u20$core..fmt..Display$GT$3fmt17h6977cad365518123E", ptr %0, align 8, !dbg !1956
  call void @llvm.memcpy.p0.p0.i64(ptr align 8 %_0, ptr align 8 %_2, i64 16, i1 false), !dbg !1957
  ret void, !dbg !1958
}

; core::fmt::rt::Argument::new_display
; Function Attrs: inlinehint uwtable
define internal void @_ZN4core3fmt2rt8Argument11new_display17hbcdba9d433aa1f00E(ptr sret([16 x i8]) align 8 %_0, ptr align 8 %x) unnamed_addr #0 !dbg !1959 {
start:
  %x.dbg.spill = alloca [8 x i8], align 8
  %_2 = alloca [16 x i8], align 8
  store ptr %x, ptr %x.dbg.spill, align 8
    #dbg_declare(ptr %x.dbg.spill, !1965, !DIExpression(), !1966)
    #dbg_declare(ptr %x.dbg.spill, !1967, !DIExpression(), !1977)
  store ptr %x, ptr %_2, align 8, !dbg !1979
  %0 = getelementptr inbounds i8, ptr %_2, i64 8, !dbg !1979
  store ptr @"_ZN60_$LT$alloc..string..String$u20$as$u20$core..fmt..Display$GT$3fmt17hb258fd6e7b698f10E", ptr %0, align 8, !dbg !1979
  call void @llvm.memcpy.p0.p0.i64(ptr align 8 %_0, ptr align 8 %_2, i64 16, i1 false), !dbg !1980
  ret void, !dbg !1981
}

; core::num::<impl u8>::from_str_radix
; Function Attrs: inlinehint uwtable
define internal { i1, i8 } @"_ZN4core3num20_$LT$impl$u20$u8$GT$14from_str_radix17h535a26d20b26f264E"(ptr align 1 %src.0, i64 %src.1, i32 %radix) unnamed_addr #0 !dbg !1982 {
start:
  %radix.dbg.spill = alloca [4 x i8], align 4
  %src.dbg.spill = alloca [16 x i8], align 8
  store ptr %src.0, ptr %src.dbg.spill, align 8
  %0 = getelementptr inbounds i8, ptr %src.dbg.spill, i64 8
  store i64 %src.1, ptr %0, align 8
    #dbg_declare(ptr %src.dbg.spill, !2006, !DIExpression(), !2008)
    #dbg_declare(ptr %src.dbg.spill, !2009, !DIExpression(), !2012)
  store i32 %radix, ptr %radix.dbg.spill, align 4
    #dbg_declare(ptr %radix.dbg.spill, !2007, !DIExpression(), !2014)
; call core::num::<impl u8>::from_ascii_radix
  %1 = call { i1, i8 } @"_ZN4core3num20_$LT$impl$u20$u8$GT$16from_ascii_radix17hd69044a7b1cbef93E"(ptr align 1 %src.0, i64 %src.1, i32 %radix), !dbg !2015
  %_0.0 = extractvalue { i1, i8 } %1, 0, !dbg !2015
  %_0.1 = extractvalue { i1, i8 } %1, 1, !dbg !2015
  %2 = insertvalue { i1, i8 } poison, i1 %_0.0, 0, !dbg !2016
  %3 = insertvalue { i1, i8 } %2, i8 %_0.1, 1, !dbg !2016
  ret { i1, i8 } %3, !dbg !2016
}

; core::num::<impl u8>::from_ascii_radix
; Function Attrs: inlinehint uwtable
define internal { i1, i8 } @"_ZN4core3num20_$LT$impl$u20$u8$GT$16from_ascii_radix17hd69044a7b1cbef93E"(ptr align 1 %src.0, i64 %src.1, i32 %radix) unnamed_addr #0 !dbg !2017 {
start:
  %x.dbg.spill21 = alloca [4 x i8], align 4
  %rest.dbg.spill19 = alloca [16 x i8], align 8
  %c.dbg.spill16 = alloca [8 x i8], align 8
  %value.dbg.spill14 = alloca [1 x i8], align 1
  %b.dbg.spill12 = alloca [1 x i8], align 1
  %self.dbg.spill11 = alloca [1 x i8], align 1
  %value.dbg.spill9 = alloca [1 x i8], align 1
  %x.dbg.spill = alloca [1 x i8], align 1
  %value.dbg.spill = alloca [4 x i8], align 4
  %b.dbg.spill = alloca [1 x i8], align 1
  %a.dbg.spill = alloca [1 x i8], align 1
  %rhs.dbg.spill = alloca [1 x i8], align 1
  %self.dbg.spill = alloca [1 x i8], align 1
  %rest.dbg.spill7 = alloca [16 x i8], align 8
  %c.dbg.spill = alloca [8 x i8], align 8
  %rest.dbg.spill4 = alloca [8 x i8], align 8
  %rest.dbg.spill = alloca [16 x i8], align 8
  %is_signed_ty.dbg.spill3 = alloca [1 x i8], align 1
  %is_signed_ty.dbg.spill = alloca [1 x i8], align 1
  %radix.dbg.spill = alloca [4 x i8], align 4
  %src.dbg.spill = alloca [16 x i8], align 8
  %_79 = alloca [16 x i8], align 8
  %_78 = alloca [1 x i8], align 1
  %_67 = alloca [8 x i8], align 8
  %_66 = alloca [1 x i8], align 1
  %_49 = alloca [2 x i8], align 1
  %_42 = alloca [8 x i8], align 4
  %mul = alloca [2 x i8], align 1
  %_23 = alloca [8 x i8], align 4
  %digits2 = alloca [16 x i8], align 8
  %radix1 = alloca [4 x i8], align 4
  %_14 = alloca [1 x i8], align 1
  %result = alloca [1 x i8], align 1
  %rest = alloca [16 x i8], align 8
  %digits = alloca [16 x i8], align 8
  %is_positive = alloca [1 x i8], align 1
  %_0 = alloca [2 x i8], align 1
  store ptr %src.0, ptr %src.dbg.spill, align 8
  %0 = getelementptr inbounds i8, ptr %src.dbg.spill, i64 8
  store i64 %src.1, ptr %0, align 8
    #dbg_declare(ptr %src.dbg.spill, !2021, !DIExpression(), !2087)
    #dbg_declare(ptr %src.dbg.spill, !2088, !DIExpression(), !2095)
  store i32 %radix, ptr %radix.dbg.spill, align 4
    #dbg_declare(ptr %radix.dbg.spill, !2022, !DIExpression(), !2097)
    #dbg_declare(ptr %is_positive, !2025, !DIExpression(), !2098)
    #dbg_declare(ptr %digits, !2027, !DIExpression(), !2099)
    #dbg_declare(ptr %rest, !2030, !DIExpression(), !2100)
    #dbg_declare(ptr %result, !2034, !DIExpression(), !2101)
    #dbg_declare(ptr %radix1, !2102, !DIExpression(), !2109)
    #dbg_declare(ptr %digits2, !2108, !DIExpression(), !2111)
    #dbg_declare(ptr %mul, !2053, !DIExpression(), !2112)
  store i8 0, ptr %is_signed_ty.dbg.spill, align 1, !dbg !2113
    #dbg_declare(ptr %is_signed_ty.dbg.spill, !2023, !DIExpression(), !2113)
  store i8 0, ptr %is_signed_ty.dbg.spill3, align 1, !dbg !2114
    #dbg_declare(ptr %is_signed_ty.dbg.spill3, !2107, !DIExpression(), !2114)
  %_3 = icmp ugt i32 2, %radix, !dbg !2115
  br i1 %_3, label %bb2, label %bb1, !dbg !2115

bb1:                                              ; preds = %start
  %_4 = icmp ugt i32 %radix, 36, !dbg !2116
  br i1 %_4, label %bb2, label %bb3, !dbg !2116

bb2:                                              ; preds = %bb1, %start
; call core::num::from_ascii_radix_panic
  call void @_ZN4core3num22from_ascii_radix_panic17hfe675f97ee80cabbE(i32 %radix, ptr align 8 @alloc_26b31bbcb16fd913b1c23735e62aee9d) #17, !dbg !2117
  unreachable, !dbg !2117

bb3:                                              ; preds = %bb1
  %1 = icmp eq i64 %src.1, 0, !dbg !2118
  br i1 %1, label %bb4, label %bb5, !dbg !2118

bb4:                                              ; preds = %bb3
  store i8 1, ptr %_0, align 1, !dbg !2119
  %2 = getelementptr inbounds i8, ptr %_0, i64 1, !dbg !2119
  store i8 0, ptr %2, align 1, !dbg !2119
  br label %bb31, !dbg !2120

bb5:                                              ; preds = %bb3
  %3 = icmp eq i64 %src.1, 1, !dbg !2122
  br i1 %3, label %bb7, label %bb6, !dbg !2122

bb31:                                             ; preds = %bb30, %bb28, %bb12, %bb4
  %4 = load i8, ptr %_0, align 1, !dbg !2123
  %5 = trunc nuw i8 %4 to i1, !dbg !2123
  %6 = getelementptr inbounds i8, ptr %_0, i64 1, !dbg !2123
  %7 = load i8, ptr %6, align 1, !dbg !2123
  %8 = insertvalue { i1, i8 } poison, i1 %5, 0, !dbg !2123
  %9 = insertvalue { i1, i8 } %8, i8 %7, 1, !dbg !2123
  ret { i1, i8 } %9, !dbg !2123

bb7:                                              ; preds = %bb5
  %10 = getelementptr inbounds nuw i8, ptr %src.0, i64 0, !dbg !2124
  %11 = load i8, ptr %10, align 1, !dbg !2124
  switch i8 %11, label %bb6 [
    i8 43, label %bb12
    i8 45, label %bb12
  ], !dbg !2124

bb6:                                              ; preds = %bb7, %bb5
  %_9 = icmp uge i64 %src.1, 1, !dbg !2125
  br i1 %_9, label %bb9, label %bb8, !dbg !2125

bb12:                                             ; preds = %bb7, %bb7
  store i8 1, ptr %_0, align 1, !dbg !2126
  %12 = getelementptr inbounds i8, ptr %_0, i64 1, !dbg !2126
  store i8 1, ptr %12, align 1, !dbg !2126
  br label %bb31, !dbg !2127

bb8:                                              ; preds = %bb10, %bb9, %bb6
  store i8 1, ptr %_78, align 1, !dbg !2129
  store ptr %src.0, ptr %_79, align 8, !dbg !2129
  %13 = getelementptr inbounds i8, ptr %_79, i64 8, !dbg !2129
  store i64 %src.1, ptr %13, align 8, !dbg !2129
  %14 = load i8, ptr %_78, align 1, !dbg !2130
  %15 = trunc nuw i8 %14 to i1, !dbg !2130
  %16 = zext i1 %15 to i8, !dbg !2130
  store i8 %16, ptr %is_positive, align 1, !dbg !2130
  %17 = load ptr, ptr %_79, align 8, !dbg !2131
  %18 = getelementptr inbounds i8, ptr %_79, i64 8, !dbg !2131
  %19 = load i64, ptr %18, align 8, !dbg !2131
  store ptr %17, ptr %digits, align 8, !dbg !2131
  %20 = getelementptr inbounds i8, ptr %digits, i64 8, !dbg !2131
  store i64 %19, ptr %20, align 8, !dbg !2131
  store i8 0, ptr %result, align 1, !dbg !2132
  store i32 %radix, ptr %radix1, align 4, !dbg !2133
  %21 = load ptr, ptr %digits, align 8, !dbg !2134
  %22 = getelementptr inbounds i8, ptr %digits, i64 8, !dbg !2134
  %23 = load i64, ptr %22, align 8, !dbg !2134
  store ptr %21, ptr %digits2, align 8, !dbg !2134
  %24 = getelementptr inbounds i8, ptr %digits2, i64 8, !dbg !2134
  store i64 %23, ptr %24, align 8, !dbg !2134
  %25 = icmp ule i32 %radix, 16, !dbg !2135
  %26 = zext i1 %25 to i8, !dbg !2135
  store i8 %26, ptr %_66, align 1, !dbg !2135
  %27 = load i8, ptr %_66, align 1, !dbg !2135
  %28 = trunc nuw i8 %27 to i1, !dbg !2135
  br i1 %28, label %bb40, label %bb44, !dbg !2135

bb9:                                              ; preds = %bb6
  %29 = getelementptr inbounds nuw i8, ptr %src.0, i64 0, !dbg !2124
  %30 = load i8, ptr %29, align 1, !dbg !2124
  switch i8 %30, label %bb8 [
    i8 43, label %bb11
    i8 45, label %bb10
  ], !dbg !2124

bb11:                                             ; preds = %bb9
  %rest.0 = getelementptr inbounds nuw i8, ptr %src.0, i64 1, !dbg !2136
  %rest.1 = sub i64 %src.1, 1, !dbg !2136
  store ptr %rest.0, ptr %rest.dbg.spill, align 8, !dbg !2136
  %31 = getelementptr inbounds i8, ptr %rest.dbg.spill, i64 8, !dbg !2136
  store i64 %rest.1, ptr %31, align 8, !dbg !2136
    #dbg_declare(ptr %rest.dbg.spill, !2028, !DIExpression(), !2137)
  store i8 1, ptr %_78, align 1, !dbg !2138
  store ptr %rest.0, ptr %_79, align 8, !dbg !2138
  %32 = getelementptr inbounds i8, ptr %_79, i64 8, !dbg !2138
  store i64 %rest.1, ptr %32, align 8, !dbg !2138
  %33 = load i8, ptr %_78, align 1, !dbg !2130
  %34 = trunc nuw i8 %33 to i1, !dbg !2130
  %35 = zext i1 %34 to i8, !dbg !2130
  store i8 %35, ptr %is_positive, align 1, !dbg !2130
  %36 = load ptr, ptr %_79, align 8, !dbg !2131
  %37 = getelementptr inbounds i8, ptr %_79, i64 8, !dbg !2131
  %38 = load i64, ptr %37, align 8, !dbg !2131
  store ptr %36, ptr %digits, align 8, !dbg !2131
  %39 = getelementptr inbounds i8, ptr %digits, i64 8, !dbg !2131
  store i64 %38, ptr %39, align 8, !dbg !2131
  store i8 0, ptr %result, align 1, !dbg !2132
  store i32 %radix, ptr %radix1, align 4, !dbg !2133
  %40 = load ptr, ptr %digits, align 8, !dbg !2134
  %41 = getelementptr inbounds i8, ptr %digits, i64 8, !dbg !2134
  %42 = load i64, ptr %41, align 8, !dbg !2134
  store ptr %40, ptr %digits2, align 8, !dbg !2134
  %43 = getelementptr inbounds i8, ptr %digits2, i64 8, !dbg !2134
  store i64 %42, ptr %43, align 8, !dbg !2134
  %44 = icmp ule i32 %radix, 16, !dbg !2135
  %45 = zext i1 %44 to i8, !dbg !2135
  store i8 %45, ptr %_66, align 1, !dbg !2135
  %46 = load i8, ptr %_66, align 1, !dbg !2135
  %47 = trunc nuw i8 %46 to i1, !dbg !2135
  br i1 %47, label %bb42, label %bb45, !dbg !2135

bb10:                                             ; preds = %bb9
  %48 = getelementptr inbounds nuw i8, ptr %src.0, i64 1, !dbg !2139
  %49 = sub i64 %src.1, 1, !dbg !2139
  store ptr %48, ptr %rest, align 8, !dbg !2139
  %50 = getelementptr inbounds i8, ptr %rest, i64 8, !dbg !2139
  store i64 %49, ptr %50, align 8, !dbg !2139
  store ptr %rest, ptr %rest.dbg.spill4, align 8, !dbg !2139
    #dbg_declare(ptr %rest.dbg.spill4, !2032, !DIExpression(), !2100)
  br label %bb8, !dbg !2140

bb45:                                             ; preds = %bb11
  br label %bb19, !dbg !2141

bb42:                                             ; preds = %bb11
  %51 = load ptr, ptr %digits2, align 8, !dbg !2142
  %52 = getelementptr inbounds i8, ptr %digits2, i64 8, !dbg !2142
  %53 = load i64, ptr %52, align 8, !dbg !2142
  store i64 %53, ptr %_67, align 8, !dbg !2142
  %54 = load i64, ptr %_67, align 8, !dbg !2142
  %55 = icmp ule i64 %54, 2, !dbg !2142
  %56 = zext i1 %55 to i8, !dbg !2142
  store i8 %56, ptr %_14, align 1, !dbg !2142
  %57 = load i8, ptr %_14, align 1, !dbg !2110
  %58 = trunc nuw i8 %57 to i1, !dbg !2110
  br i1 %58, label %bb43, label %bb47, !dbg !2110

bb19:                                             ; preds = %bb27, %bb46, %bb44, %bb47, %bb45
  %59 = load ptr, ptr %digits, align 8, !dbg !2143
  %60 = getelementptr inbounds i8, ptr %digits, i64 8, !dbg !2143
  %_34 = load i64, ptr %60, align 8, !dbg !2143
  %_35 = icmp uge i64 %_34, 1, !dbg !2143
  br i1 %_35, label %bb20, label %bb28, !dbg !2143

bb47:                                             ; preds = %bb42
  br label %bb19, !dbg !2141

bb43:                                             ; preds = %bb42
  br label %bb13, !dbg !2144

bb13:                                             ; preds = %bb18, %bb41, %bb43
  %61 = load ptr, ptr %digits, align 8, !dbg !2145
  %62 = getelementptr inbounds i8, ptr %digits, i64 8, !dbg !2145
  %_17 = load i64, ptr %62, align 8, !dbg !2145
  %_18 = icmp uge i64 %_17, 1, !dbg !2145
  br i1 %_18, label %bb14, label %bb28, !dbg !2145

bb44:                                             ; preds = %bb8
  br label %bb19, !dbg !2141

bb40:                                             ; preds = %bb8
  %63 = load ptr, ptr %digits2, align 8, !dbg !2142
  %64 = getelementptr inbounds i8, ptr %digits2, i64 8, !dbg !2142
  %65 = load i64, ptr %64, align 8, !dbg !2142
  store i64 %65, ptr %_67, align 8, !dbg !2142
  %66 = load i64, ptr %_67, align 8, !dbg !2142
  %67 = icmp ule i64 %66, 2, !dbg !2142
  %68 = zext i1 %67 to i8, !dbg !2142
  store i8 %68, ptr %_14, align 1, !dbg !2142
  %69 = load i8, ptr %_14, align 1, !dbg !2110
  %70 = trunc nuw i8 %69 to i1, !dbg !2110
  br i1 %70, label %bb41, label %bb46, !dbg !2110

bb46:                                             ; preds = %bb40
  br label %bb19, !dbg !2141

bb41:                                             ; preds = %bb40
  br label %bb13, !dbg !2144

bb28:                                             ; preds = %bb13, %bb19
  %_64 = load i8, ptr %result, align 1, !dbg !2146
  %71 = getelementptr inbounds i8, ptr %_0, i64 1, !dbg !2147
  store i8 %_64, ptr %71, align 1, !dbg !2147
  store i8 0, ptr %_0, align 1, !dbg !2147
  br label %bb31, !dbg !2123

bb20:                                             ; preds = %bb19
  %72 = load ptr, ptr %digits, align 8, !dbg !2148
  %73 = getelementptr inbounds i8, ptr %digits, i64 8, !dbg !2148
  %74 = load i64, ptr %73, align 8, !dbg !2148
  %c = getelementptr inbounds nuw i8, ptr %72, i64 0, !dbg !2148
  store ptr %c, ptr %c.dbg.spill, align 8, !dbg !2148
    #dbg_declare(ptr %c.dbg.spill, !2050, !DIExpression(), !2148)
  %75 = load ptr, ptr %digits, align 8, !dbg !2149
  %76 = getelementptr inbounds i8, ptr %digits, i64 8, !dbg !2149
  %77 = load i64, ptr %76, align 8, !dbg !2149
  %rest.05 = getelementptr inbounds nuw i8, ptr %75, i64 1, !dbg !2149
  %rest.16 = sub i64 %77, 1, !dbg !2149
  store ptr %rest.05, ptr %rest.dbg.spill7, align 8, !dbg !2149
  %78 = getelementptr inbounds i8, ptr %rest.dbg.spill7, i64 8, !dbg !2149
  store i64 %rest.16, ptr %78, align 8, !dbg !2149
    #dbg_declare(ptr %rest.dbg.spill7, !2052, !DIExpression(), !2149)
  %self = load i8, ptr %result, align 1, !dbg !2150
  store i8 %self, ptr %self.dbg.spill, align 1, !dbg !2150
    #dbg_declare(ptr %self.dbg.spill, !2151, !DIExpression(), !2164)
    #dbg_declare(ptr %self.dbg.spill, !2166, !DIExpression(), !2176)
  %rhs = trunc i32 %radix to i8, !dbg !2178
  store i8 %rhs, ptr %rhs.dbg.spill, align 1, !dbg !2178
    #dbg_declare(ptr %rhs.dbg.spill, !2157, !DIExpression(), !2179)
    #dbg_declare(ptr %rhs.dbg.spill, !2175, !DIExpression(), !2180)
  %79 = call { i8, i1 } @llvm.umul.with.overflow.i8(i8 %self, i8 %rhs), !dbg !2181
  %_70.0 = extractvalue { i8, i1 } %79, 0, !dbg !2181
  %_70.1 = extractvalue { i8, i1 } %79, 1, !dbg !2181
  store i8 %_70.0, ptr %a.dbg.spill, align 1, !dbg !2182
    #dbg_declare(ptr %a.dbg.spill, !2158, !DIExpression(), !2183)
  %80 = zext i1 %_70.1 to i8, !dbg !2184
  store i8 %80, ptr %b.dbg.spill, align 1, !dbg !2184
    #dbg_declare(ptr %b.dbg.spill, !2160, !DIExpression(), !2185)
    #dbg_declare(ptr %b.dbg.spill, !2186, !DIExpression(), !2191)
  br i1 %_70.1, label %bb33, label %bb35, !dbg !2193

bb35:                                             ; preds = %bb20
  %81 = getelementptr inbounds i8, ptr %mul, i64 1, !dbg !2194
  store i8 %_70.0, ptr %81, align 1, !dbg !2194
  store i8 1, ptr %mul, align 1, !dbg !2194
  br label %bb32, !dbg !2195

bb33:                                             ; preds = %bb20
  %82 = load i8, ptr @anon.284cfee5410ba401389a9c2a4c0ae086.4, align 1, !dbg !2196
  %83 = trunc nuw i8 %82 to i1, !dbg !2196
  %84 = load i8, ptr getelementptr inbounds (i8, ptr @anon.284cfee5410ba401389a9c2a4c0ae086.4, i64 1), align 1, !dbg !2196
  %85 = zext i1 %83 to i8, !dbg !2196
  store i8 %85, ptr %mul, align 1, !dbg !2196
  %86 = getelementptr inbounds i8, ptr %mul, i64 1, !dbg !2196
  store i8 %84, ptr %86, align 1, !dbg !2196
  br label %bb32, !dbg !2195

bb32:                                             ; preds = %bb33, %bb35
  %_44 = load i8, ptr %c, align 1, !dbg !2197
  %_43 = zext i8 %_44 to i32, !dbg !2198
; call core::char::methods::<impl char>::to_digit
  %87 = call { i32, i32 } @"_ZN4core4char7methods22_$LT$impl$u20$char$GT$8to_digit17h1b11bb4838bef225E"(i32 %_43, i32 %radix), !dbg !2199
  %88 = extractvalue { i32, i32 } %87, 0, !dbg !2199
  %89 = extractvalue { i32, i32 } %87, 1, !dbg !2199
  store i32 %88, ptr %_42, align 4, !dbg !2199
  %90 = getelementptr inbounds i8, ptr %_42, i64 4, !dbg !2199
  store i32 %89, ptr %90, align 4, !dbg !2199
  %91 = load i32, ptr %_42, align 4, !dbg !2198
  %92 = getelementptr inbounds i8, ptr %_42, i64 4, !dbg !2198
  %93 = load i32, ptr %92, align 4, !dbg !2198
  %_45 = zext i32 %91 to i64, !dbg !2198
  %94 = trunc nuw i64 %_45 to i1, !dbg !2200
  br i1 %94, label %bb23, label %bb22, !dbg !2200

bb23:                                             ; preds = %bb32
  %95 = getelementptr inbounds i8, ptr %_42, i64 4, !dbg !2201
  %value = load i32, ptr %95, align 4, !dbg !2201
  store i32 %value, ptr %value.dbg.spill, align 4, !dbg !2201
    #dbg_declare(ptr %value.dbg.spill, !2068, !DIExpression(), !2202)
  %x = trunc i32 %value to i8, !dbg !2203
  store i8 %x, ptr %x.dbg.spill, align 1, !dbg !2203
    #dbg_declare(ptr %x.dbg.spill, !2066, !DIExpression(), !2204)
    #dbg_declare(ptr %x.dbg.spill, !2205, !DIExpression(), !2209)
  %96 = load i8, ptr %mul, align 1, !dbg !2211
  %97 = trunc nuw i8 %96 to i1, !dbg !2211
  %98 = getelementptr inbounds i8, ptr %mul, i64 1, !dbg !2211
  %99 = load i8, ptr %98, align 1, !dbg !2211
  %_47 = zext i1 %97 to i64, !dbg !2211
  %100 = trunc nuw i64 %_47 to i1, !dbg !2212
  br i1 %100, label %bb25, label %bb24, !dbg !2212

bb22:                                             ; preds = %bb32
  store i8 1, ptr %_0, align 1, !dbg !2213
  %101 = getelementptr inbounds i8, ptr %_0, i64 1, !dbg !2213
  store i8 1, ptr %101, align 1, !dbg !2213
  br label %bb29, !dbg !2214

bb29:                                             ; preds = %bb26, %bb24, %bb22
  br label %bb30, !dbg !2216

bb25:                                             ; preds = %bb23
  %102 = getelementptr inbounds i8, ptr %mul, i64 1, !dbg !2218
  %value8 = load i8, ptr %102, align 1, !dbg !2218
  store i8 %value8, ptr %value.dbg.spill9, align 1, !dbg !2218
    #dbg_declare(ptr %value.dbg.spill9, !2070, !DIExpression(), !2219)
  store i8 %value8, ptr %result, align 1, !dbg !2220
  %self10 = load i8, ptr %result, align 1, !dbg !2221
  store i8 %self10, ptr %self.dbg.spill11, align 1, !dbg !2221
    #dbg_declare(ptr %self.dbg.spill11, !2208, !DIExpression(), !2222)
  %103 = call { i8, i1 } @llvm.uadd.with.overflow.i8(i8 %self10, i8 %x), !dbg !2223
  %_73.0 = extractvalue { i8, i1 } %103, 0, !dbg !2223
  %_73.1 = extractvalue { i8, i1 } %103, 1, !dbg !2223
  %104 = zext i1 %_73.1 to i8, !dbg !2223
  store i8 %104, ptr %b.dbg.spill12, align 1, !dbg !2223
    #dbg_declare(ptr %b.dbg.spill12, !2186, !DIExpression(), !2224)
  br i1 %_73.1, label %bb37, label %bb39, !dbg !2226

bb24:                                             ; preds = %bb23
  store i8 1, ptr %_0, align 1, !dbg !2227
  %105 = getelementptr inbounds i8, ptr %_0, i64 1, !dbg !2227
  store i8 2, ptr %105, align 1, !dbg !2227
  br label %bb29, !dbg !2228

bb39:                                             ; preds = %bb25
  %_74 = add nuw i8 %self10, %x, !dbg !2230
  %106 = getelementptr inbounds i8, ptr %_49, i64 1, !dbg !2231
  store i8 %_74, ptr %106, align 1, !dbg !2231
  store i8 1, ptr %_49, align 1, !dbg !2231
  br label %bb36, !dbg !2232

bb37:                                             ; preds = %bb25
  %107 = load i8, ptr @anon.284cfee5410ba401389a9c2a4c0ae086.4, align 1, !dbg !2233
  %108 = trunc nuw i8 %107 to i1, !dbg !2233
  %109 = load i8, ptr getelementptr inbounds (i8, ptr @anon.284cfee5410ba401389a9c2a4c0ae086.4, i64 1), align 1, !dbg !2233
  %110 = zext i1 %108 to i8, !dbg !2233
  store i8 %110, ptr %_49, align 1, !dbg !2233
  %111 = getelementptr inbounds i8, ptr %_49, i64 1, !dbg !2233
  store i8 %109, ptr %111, align 1, !dbg !2233
  br label %bb36, !dbg !2232

bb36:                                             ; preds = %bb37, %bb39
  %112 = load i8, ptr %_49, align 1, !dbg !2210
  %113 = trunc nuw i8 %112 to i1, !dbg !2210
  %114 = getelementptr inbounds i8, ptr %_49, i64 1, !dbg !2210
  %115 = load i8, ptr %114, align 1, !dbg !2210
  %_51 = zext i1 %113 to i64, !dbg !2210
  %116 = trunc nuw i64 %_51 to i1, !dbg !2212
  br i1 %116, label %bb27, label %bb26, !dbg !2212

bb27:                                             ; preds = %bb36
  %117 = getelementptr inbounds i8, ptr %_49, i64 1, !dbg !2218
  %value13 = load i8, ptr %117, align 1, !dbg !2218
  store i8 %value13, ptr %value.dbg.spill14, align 1, !dbg !2218
    #dbg_declare(ptr %value.dbg.spill14, !2072, !DIExpression(), !2234)
  store i8 %value13, ptr %result, align 1, !dbg !2235
  store ptr %rest.05, ptr %digits, align 8, !dbg !2236
  %118 = getelementptr inbounds i8, ptr %digits, i64 8, !dbg !2236
  store i64 %rest.16, ptr %118, align 8, !dbg !2236
  br label %bb19, !dbg !2237

bb26:                                             ; preds = %bb36
  store i8 1, ptr %_0, align 1, !dbg !2227
  %119 = getelementptr inbounds i8, ptr %_0, i64 1, !dbg !2227
  store i8 2, ptr %119, align 1, !dbg !2227
  br label %bb29, !dbg !2228

bb30:                                             ; preds = %bb17, %bb29
  br label %bb31, !dbg !2127

bb14:                                             ; preds = %bb13
  %120 = load ptr, ptr %digits, align 8, !dbg !2238
  %121 = getelementptr inbounds i8, ptr %digits, i64 8, !dbg !2238
  %122 = load i64, ptr %121, align 8, !dbg !2238
  %c15 = getelementptr inbounds nuw i8, ptr %120, i64 0, !dbg !2238
  store ptr %c15, ptr %c.dbg.spill16, align 8, !dbg !2238
    #dbg_declare(ptr %c.dbg.spill16, !2036, !DIExpression(), !2238)
  %123 = load ptr, ptr %digits, align 8, !dbg !2239
  %124 = getelementptr inbounds i8, ptr %digits, i64 8, !dbg !2239
  %125 = load i64, ptr %124, align 8, !dbg !2239
  %rest.017 = getelementptr inbounds nuw i8, ptr %123, i64 1, !dbg !2239
  %rest.118 = sub i64 %125, 1, !dbg !2239
  store ptr %rest.017, ptr %rest.dbg.spill19, align 8, !dbg !2239
  %126 = getelementptr inbounds i8, ptr %rest.dbg.spill19, i64 8, !dbg !2239
  store i64 %rest.118, ptr %126, align 8, !dbg !2239
    #dbg_declare(ptr %rest.dbg.spill19, !2038, !DIExpression(), !2239)
  %_21 = load i8, ptr %result, align 1, !dbg !2240
  %_22 = trunc i32 %radix to i8, !dbg !2241
  %127 = mul i8 %_21, %_22, !dbg !2242
  store i8 %127, ptr %result, align 1, !dbg !2242
  %_25 = load i8, ptr %c15, align 1, !dbg !2243
  %_24 = zext i8 %_25 to i32, !dbg !2244
; call core::char::methods::<impl char>::to_digit
  %128 = call { i32, i32 } @"_ZN4core4char7methods22_$LT$impl$u20$char$GT$8to_digit17h1b11bb4838bef225E"(i32 %_24, i32 %radix), !dbg !2245
  %129 = extractvalue { i32, i32 } %128, 0, !dbg !2245
  %130 = extractvalue { i32, i32 } %128, 1, !dbg !2245
  store i32 %129, ptr %_23, align 4, !dbg !2245
  %131 = getelementptr inbounds i8, ptr %_23, i64 4, !dbg !2245
  store i32 %130, ptr %131, align 4, !dbg !2245
  %132 = load i32, ptr %_23, align 4, !dbg !2244
  %133 = getelementptr inbounds i8, ptr %_23, i64 4, !dbg !2244
  %134 = load i32, ptr %133, align 4, !dbg !2244
  %_26 = zext i32 %132 to i64, !dbg !2244
  %135 = trunc nuw i64 %_26 to i1, !dbg !2246
  br i1 %135, label %bb18, label %bb17, !dbg !2246

bb18:                                             ; preds = %bb14
  %136 = getelementptr inbounds i8, ptr %_23, i64 4, !dbg !2247
  %x20 = load i32, ptr %136, align 4, !dbg !2247
  store i32 %x20, ptr %x.dbg.spill21, align 4, !dbg !2247
    #dbg_declare(ptr %x.dbg.spill21, !2039, !DIExpression(), !2248)
    #dbg_declare(ptr %x.dbg.spill21, !2041, !DIExpression(), !2249)
  %_28 = load i8, ptr %result, align 1, !dbg !2250
  %_29 = trunc i32 %x20 to i8, !dbg !2251
  %137 = add i8 %_28, %_29, !dbg !2252
  store i8 %137, ptr %result, align 1, !dbg !2252
  store ptr %rest.017, ptr %digits, align 8, !dbg !2253
  %138 = getelementptr inbounds i8, ptr %digits, i64 8, !dbg !2253
  store i64 %rest.118, ptr %138, align 8, !dbg !2253
  br label %bb13, !dbg !2254

bb17:                                             ; preds = %bb14
  store i8 1, ptr %_0, align 1, !dbg !2255
  %139 = getelementptr inbounds i8, ptr %_0, i64 1, !dbg !2255
  store i8 1, ptr %139, align 1, !dbg !2255
  br label %bb30, !dbg !2216

bb16:                                             ; No predecessors!
  unreachable, !dbg !2120
}

; core::num::nonzero::NonZero<T>::new_unchecked::precondition_check
; Function Attrs: inlinehint nounwind uwtable
define internal void @"_ZN4core3num7nonzero16NonZero$LT$T$GT$13new_unchecked18precondition_check17hbc05f0c0d63c0f21E"(ptr align 8 %0) unnamed_addr #4 !dbg !2256 {
start:
  %pieces.dbg.spill = alloca [8 x i8], align 8
  %msg.dbg.spill = alloca [16 x i8], align 8
  %_4 = alloca [16 x i8], align 8
  %_2 = alloca [48 x i8], align 8
  store ptr @alloc_d7e165a166a72c56d1d4a46283bb3267, ptr %msg.dbg.spill, align 8, !dbg !2262
  %1 = getelementptr inbounds i8, ptr %msg.dbg.spill, i64 8, !dbg !2262
  store i64 209, ptr %1, align 8, !dbg !2262
    #dbg_declare(ptr %msg.dbg.spill, !2260, !DIExpression(), !2262)
  %2 = getelementptr inbounds nuw { ptr, i64 }, ptr %_4, i64 0, !dbg !2263
  store ptr @alloc_d7e165a166a72c56d1d4a46283bb3267, ptr %2, align 8, !dbg !2263
  %3 = getelementptr inbounds i8, ptr %2, i64 8, !dbg !2263
  store i64 209, ptr %3, align 8, !dbg !2263
  store ptr %_4, ptr %pieces.dbg.spill, align 8, !dbg !2264
    #dbg_declare(ptr %pieces.dbg.spill, !2265, !DIExpression(), !2327)
  store ptr %_4, ptr %_2, align 8, !dbg !2329
  %4 = getelementptr inbounds i8, ptr %_2, i64 8, !dbg !2329
  store i64 1, ptr %4, align 8, !dbg !2329
  %5 = load ptr, ptr @anon.284cfee5410ba401389a9c2a4c0ae086.2, align 8, !dbg !2329
  %6 = load i64, ptr getelementptr inbounds (i8, ptr @anon.284cfee5410ba401389a9c2a4c0ae086.2, i64 8), align 8, !dbg !2329
  %7 = getelementptr inbounds i8, ptr %_2, i64 32, !dbg !2329
  store ptr %5, ptr %7, align 8, !dbg !2329
  %8 = getelementptr inbounds i8, ptr %7, i64 8, !dbg !2329
  store i64 %6, ptr %8, align 8, !dbg !2329
  %9 = getelementptr inbounds i8, ptr %_2, i64 16, !dbg !2329
  store ptr inttoptr (i64 8 to ptr), ptr %9, align 8, !dbg !2329
  %10 = getelementptr inbounds i8, ptr %9, i64 8, !dbg !2329
  store i64 0, ptr %10, align 8, !dbg !2329
; call core::panicking::panic_nounwind_fmt
  call void @_ZN4core9panicking18panic_nounwind_fmt17h5a0053aaf4374c47E(ptr align 8 %_2, i1 zeroext false, ptr align 8 %0) #18, !dbg !2330
  unreachable, !dbg !2330
}

; core::ops::function::FnMut::call_mut
; Function Attrs: inlinehint uwtable
define internal zeroext i1 @_ZN4core3ops8function5FnMut8call_mut17ha6d6432a958137deE(ptr align 1 %_1, i32 %0) unnamed_addr #0 !dbg !2331 {
start:
  %_1.dbg.spill = alloca [8 x i8], align 8
  %_2 = alloca [4 x i8], align 4
  store i32 %0, ptr %_2, align 4
  store ptr %_1, ptr %_1.dbg.spill, align 8
    #dbg_declare(ptr %_1.dbg.spill, !2339, !DIExpression(), !2347)
    #dbg_declare(ptr %_2, !2340, !DIExpression(), !2347)
  %1 = load i32, ptr %_2, align 4, !dbg !2347
; call core::char::methods::<impl char>::is_whitespace
  %_0 = call zeroext i1 @"_ZN4core4char7methods22_$LT$impl$u20$char$GT$13is_whitespace17h77562e6eeb51cb75E"(i32 %1), !dbg !2347
  ret i1 %_0, !dbg !2347
}

; core::ops::function::FnOnce::call_once{{vtable.shim}}
; Function Attrs: inlinehint uwtable
define internal i32 @"_ZN4core3ops8function6FnOnce40call_once$u7b$$u7b$vtable.shim$u7d$$u7d$17ha58566592250fc49E"(ptr %_1) unnamed_addr #0 !dbg !2348 {
start:
  %_1.dbg.spill = alloca [8 x i8], align 8
  %_2 = alloca [0 x i8], align 1
  store ptr %_1, ptr %_1.dbg.spill, align 8
    #dbg_declare(ptr %_1.dbg.spill, !2354, !DIExpression(), !2359)
    #dbg_declare(ptr %_2, !2355, !DIExpression(), !2359)
  %0 = load ptr, ptr %_1, align 8, !dbg !2359
; call core::ops::function::FnOnce::call_once
  %_0 = call i32 @_ZN4core3ops8function6FnOnce9call_once17hb33e2b139c8b6aa9E(ptr %0), !dbg !2359
  ret i32 %_0, !dbg !2359
}

; core::ops::function::FnOnce::call_once
; Function Attrs: inlinehint uwtable
define internal ptr @_ZN4core3ops8function6FnOnce9call_once17h7643281b35ec6cd1E(ptr %_1) unnamed_addr #0 !dbg !2360 {
start:
  %_1.dbg.spill = alloca [8 x i8], align 8
  %_2 = alloca [0 x i8], align 1
  store ptr %_1, ptr %_1.dbg.spill, align 8
    #dbg_declare(ptr %_1.dbg.spill, !2362, !DIExpression(), !2366)
    #dbg_declare(ptr %_2, !2363, !DIExpression(), !2366)
  %_0 = call ptr %_1(), !dbg !2366
  ret ptr %_0, !dbg !2366
}

; core::ops::function::FnOnce::call_once
; Function Attrs: inlinehint uwtable
define internal i32 @_ZN4core3ops8function6FnOnce9call_once17hb33e2b139c8b6aa9E(ptr %0) unnamed_addr #0 personality ptr @rust_eh_personality !dbg !2367 {
start:
  %1 = alloca [16 x i8], align 8
  %_2 = alloca [0 x i8], align 1
  %_1 = alloca [8 x i8], align 8
  store ptr %0, ptr %_1, align 8
    #dbg_declare(ptr %_1, !2371, !DIExpression(), !2373)
    #dbg_declare(ptr %_2, !2372, !DIExpression(), !2373)
; invoke std::rt::lang_start::{{closure}}
  %_0 = invoke i32 @"_ZN3std2rt10lang_start28_$u7b$$u7b$closure$u7d$$u7d$17h2a5035041e038e37E"(ptr align 8 %_1)
          to label %bb1 unwind label %cleanup, !dbg !2373

bb3:                                              ; preds = %cleanup
  %2 = load ptr, ptr %1, align 8, !dbg !2373
  %3 = getelementptr inbounds i8, ptr %1, i64 8, !dbg !2373
  %4 = load i32, ptr %3, align 8, !dbg !2373
  %5 = insertvalue { ptr, i32 } poison, ptr %2, 0, !dbg !2373
  %6 = insertvalue { ptr, i32 } %5, i32 %4, 1, !dbg !2373
  resume { ptr, i32 } %6, !dbg !2373

cleanup:                                          ; preds = %start
  %7 = landingpad { ptr, i32 }
          cleanup
  %8 = extractvalue { ptr, i32 } %7, 0
  %9 = extractvalue { ptr, i32 } %7, 1
  store ptr %8, ptr %1, align 8
  %10 = getelementptr inbounds i8, ptr %1, i64 8
  store i32 %9, ptr %10, align 8
  br label %bb3

bb1:                                              ; preds = %start
  ret i32 %_0, !dbg !2373
}

; core::ptr::drop_in_place<std::io::error::ErrorData<alloc::boxed::Box<std::io::error::Custom>>>
; Function Attrs: uwtable
define internal void @"_ZN4core3ptr101drop_in_place$LT$std..io..error..ErrorData$LT$alloc..boxed..Box$LT$std..io..error..Custom$GT$$GT$$GT$17hbe741de255e0caf0E"(ptr align 8 %_1) unnamed_addr #1 !dbg !2374 {
start:
  %_1.dbg.spill = alloca [8 x i8], align 8
  store ptr %_1, ptr %_1.dbg.spill, align 8
    #dbg_declare(ptr %_1.dbg.spill, !2380, !DIExpression(), !2381)
  %0 = load i8, ptr %_1, align 8, !dbg !2381
  %_2 = zext i8 %0 to i64, !dbg !2381
  switch i64 %_2, label %bb2 [
    i64 0, label %bb1
    i64 1, label %bb1
    i64 2, label %bb1
  ], !dbg !2381

bb2:                                              ; preds = %start
  %1 = getelementptr inbounds i8, ptr %_1, i64 8, !dbg !2381
; call core::ptr::drop_in_place<alloc::boxed::Box<std::io::error::Custom>>
  call void @"_ZN4core3ptr68drop_in_place$LT$alloc..boxed..Box$LT$std..io..error..Custom$GT$$GT$17hc47ff2df06a621f4E"(ptr align 8 %1), !dbg !2381
  br label %bb1, !dbg !2381

bb1:                                              ; preds = %bb2, %start, %start, %start
  ret void, !dbg !2381
}

; core::ptr::drop_in_place<alloc::boxed::Box<dyn core::error::Error+core::marker::Sync+core::marker::Send>>
; Function Attrs: uwtable
define internal void @"_ZN4core3ptr118drop_in_place$LT$alloc..boxed..Box$LT$dyn$u20$core..error..Error$u2b$core..marker..Sync$u2b$core..marker..Send$GT$$GT$17h2a7401ebf6c34399E"(ptr align 8 %_1) unnamed_addr #1 personality ptr @rust_eh_personality !dbg !2382 {
start:
  %0 = alloca [16 x i8], align 8
  %_1.dbg.spill = alloca [8 x i8], align 8
  store ptr %_1, ptr %_1.dbg.spill, align 8
    #dbg_declare(ptr %_1.dbg.spill, !2387, !DIExpression(), !2390)
  %_6.0 = load ptr, ptr %_1, align 8, !dbg !2390
  %1 = getelementptr inbounds i8, ptr %_1, i64 8, !dbg !2390
  %_6.1 = load ptr, ptr %1, align 8, !dbg !2390
  %2 = getelementptr inbounds i8, ptr %_6.1, i64 0, !dbg !2390
  %3 = load ptr, ptr %2, align 8, !dbg !2390, !invariant.load !54
  %4 = icmp ne ptr %3, null, !dbg !2390
  br i1 %4, label %is_not_null, label %bb3, !dbg !2390

is_not_null:                                      ; preds = %start
  invoke void %3(ptr %_6.0)
          to label %bb3 unwind label %cleanup, !dbg !2390

bb3:                                              ; preds = %is_not_null, %start
; call <alloc::boxed::Box<T,A> as core::ops::drop::Drop>::drop
  call void @"_ZN72_$LT$alloc..boxed..Box$LT$T$C$A$GT$$u20$as$u20$core..ops..drop..Drop$GT$4drop17ha81fd61e841e9e8bE"(ptr align 8 %_1), !dbg !2390
  ret void, !dbg !2390

bb4:                                              ; preds = %cleanup
; invoke <alloc::boxed::Box<T,A> as core::ops::drop::Drop>::drop
  invoke void @"_ZN72_$LT$alloc..boxed..Box$LT$T$C$A$GT$$u20$as$u20$core..ops..drop..Drop$GT$4drop17ha81fd61e841e9e8bE"(ptr align 8 %_1) #15
          to label %bb1 unwind label %terminate, !dbg !2390

cleanup:                                          ; preds = %is_not_null
  %5 = landingpad { ptr, i32 }
          cleanup
  %6 = extractvalue { ptr, i32 } %5, 0
  %7 = extractvalue { ptr, i32 } %5, 1
  store ptr %6, ptr %0, align 8
  %8 = getelementptr inbounds i8, ptr %0, i64 8
  store i32 %7, ptr %8, align 8
  br label %bb4

terminate:                                        ; preds = %bb4
  %9 = landingpad { ptr, i32 }
          filter [0 x ptr] zeroinitializer
  %10 = extractvalue { ptr, i32 } %9, 0
  %11 = extractvalue { ptr, i32 } %9, 1
; call core::panicking::panic_in_cleanup
  call void @_ZN4core9panicking16panic_in_cleanup17h421db903ec8c7969E() #16, !dbg !2390
  unreachable, !dbg !2390

bb1:                                              ; preds = %bb4
  %12 = load ptr, ptr %0, align 8, !dbg !2390
  %13 = getelementptr inbounds i8, ptr %0, i64 8, !dbg !2390
  %14 = load i32, ptr %13, align 8, !dbg !2390
  %15 = insertvalue { ptr, i32 } poison, ptr %12, 0, !dbg !2390
  %16 = insertvalue { ptr, i32 } %15, i32 %14, 1, !dbg !2390
  resume { ptr, i32 } %16, !dbg !2390
}

; core::ptr::drop_in_place<std::fs::File>
; Function Attrs: uwtable
define internal void @"_ZN4core3ptr34drop_in_place$LT$std..fs..File$GT$17hc3463029e66645d3E"(ptr align 8 %_1) unnamed_addr #1 !dbg !2391 {
start:
  %_1.dbg.spill = alloca [8 x i8], align 8
  store ptr %_1, ptr %_1.dbg.spill, align 8
    #dbg_declare(ptr %_1.dbg.spill, !2396, !DIExpression(), !2398)
; call core::ptr::drop_in_place<std::sys::fs::windows::File>
  call void @"_ZN4core3ptr48drop_in_place$LT$std..sys..fs..windows..File$GT$17he94c82c7a926c0ffE"(ptr align 8 %_1), !dbg !2398
  ret void, !dbg !2398
}

; core::ptr::drop_in_place<std::io::error::Error>
; Function Attrs: uwtable
define internal void @"_ZN4core3ptr42drop_in_place$LT$std..io..error..Error$GT$17h458988fc5bb0a78aE"(ptr align 8 %_1) unnamed_addr #1 !dbg !2399 {
start:
  %_1.dbg.spill = alloca [8 x i8], align 8
  store ptr %_1, ptr %_1.dbg.spill, align 8
    #dbg_declare(ptr %_1.dbg.spill, !2404, !DIExpression(), !2405)
; call core::ptr::drop_in_place<std::io::error::repr_bitpacked::Repr>
  call void @"_ZN4core3ptr57drop_in_place$LT$std..io..error..repr_bitpacked..Repr$GT$17h63b7c56c0b02ece2E"(ptr align 8 %_1), !dbg !2405
  ret void, !dbg !2405
}

; core::ptr::drop_in_place<std::io::error::Custom>
; Function Attrs: uwtable
define internal void @"_ZN4core3ptr43drop_in_place$LT$std..io..error..Custom$GT$17hc74b0f134183e79bE"(ptr align 8 %_1) unnamed_addr #1 !dbg !2406 {
start:
  %_1.dbg.spill = alloca [8 x i8], align 8
  store ptr %_1, ptr %_1.dbg.spill, align 8
    #dbg_declare(ptr %_1.dbg.spill, !2410, !DIExpression(), !2413)
; call core::ptr::drop_in_place<alloc::boxed::Box<dyn core::error::Error+core::marker::Sync+core::marker::Send>>
  call void @"_ZN4core3ptr118drop_in_place$LT$alloc..boxed..Box$LT$dyn$u20$core..error..Error$u2b$core..marker..Sync$u2b$core..marker..Send$GT$$GT$17h2a7401ebf6c34399E"(ptr align 8 %_1), !dbg !2413
  ret void, !dbg !2413
}

; core::ptr::drop_in_place<std::sys::fs::windows::File>
; Function Attrs: uwtable
define internal void @"_ZN4core3ptr48drop_in_place$LT$std..sys..fs..windows..File$GT$17he94c82c7a926c0ffE"(ptr align 8 %_1) unnamed_addr #1 !dbg !2414 {
start:
  %_1.dbg.spill = alloca [8 x i8], align 8
  store ptr %_1, ptr %_1.dbg.spill, align 8
    #dbg_declare(ptr %_1.dbg.spill, !2419, !DIExpression(), !2422)
; call core::ptr::drop_in_place<std::sys::pal::windows::handle::Handle>
  call void @"_ZN4core3ptr59drop_in_place$LT$std..sys..pal..windows..handle..Handle$GT$17h5aeecdba8121bdefE"(ptr align 8 %_1), !dbg !2422
  ret void, !dbg !2422
}

; core::ptr::drop_in_place<std::io::error::repr_bitpacked::Repr>
; Function Attrs: uwtable
define internal void @"_ZN4core3ptr57drop_in_place$LT$std..io..error..repr_bitpacked..Repr$GT$17h63b7c56c0b02ece2E"(ptr align 8 %_1) unnamed_addr #1 !dbg !2423 {
start:
  %_1.dbg.spill = alloca [8 x i8], align 8
  store ptr %_1, ptr %_1.dbg.spill, align 8
    #dbg_declare(ptr %_1.dbg.spill, !2428, !DIExpression(), !2431)
; call <std::io::error::repr_bitpacked::Repr as core::ops::drop::Drop>::drop
  call void @"_ZN78_$LT$std..io..error..repr_bitpacked..Repr$u20$as$u20$core..ops..drop..Drop$GT$4drop17h6e59dc40493dbca8E"(ptr align 8 %_1), !dbg !2431
  ret void, !dbg !2431
}

; core::ptr::drop_in_place<std::sys::pal::windows::handle::Handle>
; Function Attrs: uwtable
define internal void @"_ZN4core3ptr59drop_in_place$LT$std..sys..pal..windows..handle..Handle$GT$17h5aeecdba8121bdefE"(ptr align 8 %_1) unnamed_addr #1 !dbg !2432 {
start:
  %_1.dbg.spill = alloca [8 x i8], align 8
  store ptr %_1, ptr %_1.dbg.spill, align 8
    #dbg_declare(ptr %_1.dbg.spill, !2437, !DIExpression(), !2440)
; call core::ptr::drop_in_place<std::os::windows::io::handle::OwnedHandle>
  call void @"_ZN4core3ptr62drop_in_place$LT$std..os..windows..io..handle..OwnedHandle$GT$17h25c382af030f390fE"(ptr align 8 %_1), !dbg !2440
  ret void, !dbg !2440
}

; core::ptr::drop_in_place<std::os::windows::io::handle::OwnedHandle>
; Function Attrs: uwtable
define internal void @"_ZN4core3ptr62drop_in_place$LT$std..os..windows..io..handle..OwnedHandle$GT$17h25c382af030f390fE"(ptr align 8 %_1) unnamed_addr #1 !dbg !2441 {
start:
  %_1.dbg.spill = alloca [8 x i8], align 8
  store ptr %_1, ptr %_1.dbg.spill, align 8
    #dbg_declare(ptr %_1.dbg.spill, !2446, !DIExpression(), !2449)
; call <std::os::windows::io::handle::OwnedHandle as core::ops::drop::Drop>::drop
  call void @"_ZN83_$LT$std..os..windows..io..handle..OwnedHandle$u20$as$u20$core..ops..drop..Drop$GT$4drop17hc094318db5eee629E"(ptr align 8 %_1), !dbg !2449
  ret void, !dbg !2449
}

; core::ptr::drop_in_place<alloc::boxed::Box<std::io::error::Custom>>
; Function Attrs: uwtable
define internal void @"_ZN4core3ptr68drop_in_place$LT$alloc..boxed..Box$LT$std..io..error..Custom$GT$$GT$17hc47ff2df06a621f4E"(ptr align 8 %_1) unnamed_addr #1 personality ptr @rust_eh_personality !dbg !2450 {
start:
  %0 = alloca [16 x i8], align 8
  %_1.dbg.spill = alloca [8 x i8], align 8
  store ptr %_1, ptr %_1.dbg.spill, align 8
    #dbg_declare(ptr %_1.dbg.spill, !2455, !DIExpression(), !2458)
  %_6 = load ptr, ptr %_1, align 8, !dbg !2458
; invoke core::ptr::drop_in_place<std::io::error::Custom>
  invoke void @"_ZN4core3ptr43drop_in_place$LT$std..io..error..Custom$GT$17hc74b0f134183e79bE"(ptr align 8 %_6)
          to label %bb3 unwind label %cleanup, !dbg !2458

bb4:                                              ; preds = %cleanup
; invoke <alloc::boxed::Box<T,A> as core::ops::drop::Drop>::drop
  invoke void @"_ZN72_$LT$alloc..boxed..Box$LT$T$C$A$GT$$u20$as$u20$core..ops..drop..Drop$GT$4drop17h748636ef4435d348E"(ptr align 8 %_1) #15
          to label %bb1 unwind label %terminate, !dbg !2458

cleanup:                                          ; preds = %start
  %1 = landingpad { ptr, i32 }
          cleanup
  %2 = extractvalue { ptr, i32 } %1, 0
  %3 = extractvalue { ptr, i32 } %1, 1
  store ptr %2, ptr %0, align 8
  %4 = getelementptr inbounds i8, ptr %0, i64 8
  store i32 %3, ptr %4, align 8
  br label %bb4

bb3:                                              ; preds = %start
; call <alloc::boxed::Box<T,A> as core::ops::drop::Drop>::drop
  call void @"_ZN72_$LT$alloc..boxed..Box$LT$T$C$A$GT$$u20$as$u20$core..ops..drop..Drop$GT$4drop17h748636ef4435d348E"(ptr align 8 %_1), !dbg !2458
  ret void, !dbg !2458

terminate:                                        ; preds = %bb4
  %5 = landingpad { ptr, i32 }
          filter [0 x ptr] zeroinitializer
  %6 = extractvalue { ptr, i32 } %5, 0
  %7 = extractvalue { ptr, i32 } %5, 1
; call core::panicking::panic_in_cleanup
  call void @_ZN4core9panicking16panic_in_cleanup17h421db903ec8c7969E() #16, !dbg !2458
  unreachable, !dbg !2458

bb1:                                              ; preds = %bb4
  %8 = load ptr, ptr %0, align 8, !dbg !2458
  %9 = getelementptr inbounds i8, ptr %0, i64 8, !dbg !2458
  %10 = load i32, ptr %9, align 8, !dbg !2458
  %11 = insertvalue { ptr, i32 } poison, ptr %8, 0, !dbg !2458
  %12 = insertvalue { ptr, i32 } %11, i32 %10, 1, !dbg !2458
  resume { ptr, i32 } %12, !dbg !2458
}

; core::ptr::non_null::NonNull<T>::new_unchecked::precondition_check
; Function Attrs: inlinehint nounwind uwtable
define internal void @"_ZN4core3ptr8non_null16NonNull$LT$T$GT$13new_unchecked18precondition_check17h944c1632d6ae9db9E"(ptr %ptr, ptr align 8 %0) unnamed_addr #4 !dbg !2459 {
start:
  %pieces.dbg.spill = alloca [8 x i8], align 8
  %msg.dbg.spill = alloca [16 x i8], align 8
  %ptr.dbg.spill = alloca [8 x i8], align 8
  %_5 = alloca [16 x i8], align 8
  %_3 = alloca [48 x i8], align 8
  store ptr %ptr, ptr %ptr.dbg.spill, align 8
    #dbg_declare(ptr %ptr.dbg.spill, !2465, !DIExpression(), !2468)
    #dbg_declare(ptr %ptr.dbg.spill, !2469, !DIExpression(), !2474)
  store ptr @alloc_560a59ed819b9d9a5841f6e731c4c8e5, ptr %msg.dbg.spill, align 8, !dbg !2477
  %1 = getelementptr inbounds i8, ptr %msg.dbg.spill, i64 8, !dbg !2477
  store i64 210, ptr %1, align 8, !dbg !2477
    #dbg_declare(ptr %msg.dbg.spill, !2466, !DIExpression(), !2477)
  %_6 = ptrtoint ptr %ptr to i64, !dbg !2478
  %2 = icmp eq i64 %_6, 0, !dbg !2497
  br i1 %2, label %bb1, label %bb2, !dbg !2497

bb1:                                              ; preds = %start
  %3 = getelementptr inbounds nuw { ptr, i64 }, ptr %_5, i64 0, !dbg !2498
  store ptr @alloc_560a59ed819b9d9a5841f6e731c4c8e5, ptr %3, align 8, !dbg !2498
  %4 = getelementptr inbounds i8, ptr %3, i64 8, !dbg !2498
  store i64 210, ptr %4, align 8, !dbg !2498
  store ptr %_5, ptr %pieces.dbg.spill, align 8, !dbg !2499
    #dbg_declare(ptr %pieces.dbg.spill, !2500, !DIExpression(), !2503)
  store ptr %_5, ptr %_3, align 8, !dbg !2505
  %5 = getelementptr inbounds i8, ptr %_3, i64 8, !dbg !2505
  store i64 1, ptr %5, align 8, !dbg !2505
  %6 = load ptr, ptr @anon.284cfee5410ba401389a9c2a4c0ae086.2, align 8, !dbg !2505
  %7 = load i64, ptr getelementptr inbounds (i8, ptr @anon.284cfee5410ba401389a9c2a4c0ae086.2, i64 8), align 8, !dbg !2505
  %8 = getelementptr inbounds i8, ptr %_3, i64 32, !dbg !2505
  store ptr %6, ptr %8, align 8, !dbg !2505
  %9 = getelementptr inbounds i8, ptr %8, i64 8, !dbg !2505
  store i64 %7, ptr %9, align 8, !dbg !2505
  %10 = getelementptr inbounds i8, ptr %_3, i64 16, !dbg !2505
  store ptr inttoptr (i64 8 to ptr), ptr %10, align 8, !dbg !2505
  %11 = getelementptr inbounds i8, ptr %10, i64 8, !dbg !2505
  store i64 0, ptr %11, align 8, !dbg !2505
; call core::panicking::panic_nounwind_fmt
  call void @_ZN4core9panicking18panic_nounwind_fmt17h5a0053aaf4374c47E(ptr align 8 %_3, i1 zeroext false, ptr align 8 %0) #18, !dbg !2506
  unreachable, !dbg !2506

bb2:                                              ; preds = %start
  ret void, !dbg !2507
}

; core::ptr::drop_in_place<dyn core::error::Error+core::marker::Sync+core::marker::Send>
; Function Attrs: uwtable
define internal void @"_ZN4core3ptr93drop_in_place$LT$dyn$u20$core..error..Error$u2b$core..marker..Sync$u2b$core..marker..Send$GT$17h151ff3af8e6fda72E"(ptr align 1 %_1.0, ptr align 8 %_1.1) unnamed_addr #1 !dbg !2508 {
start:
  %_1.dbg.spill = alloca [16 x i8], align 8
  store ptr %_1.0, ptr %_1.dbg.spill, align 8
  %0 = getelementptr inbounds i8, ptr %_1.dbg.spill, i64 8
  store ptr %_1.1, ptr %0, align 8
    #dbg_declare(ptr %_1.dbg.spill, !2516, !DIExpression(), !2519)
  %1 = getelementptr inbounds i8, ptr %_1.1, i64 0, !dbg !2519
  %2 = load ptr, ptr %1, align 8, !dbg !2519, !invariant.load !54
  %3 = icmp ne ptr %2, null, !dbg !2519
  br i1 %3, label %is_not_null, label %bb1, !dbg !2519

is_not_null:                                      ; preds = %start
  call void %2(ptr %_1.0), !dbg !2519
  br label %bb1, !dbg !2519

bb1:                                              ; preds = %is_not_null, %start
  ret void, !dbg !2519
}

; core::str::validations::next_code_point_reverse
; Function Attrs: inlinehint uwtable
define internal { i32, i32 } @_ZN4core3str11validations23next_code_point_reverse17h772f1dbf179dedd9E(ptr align 8 %bytes) unnamed_addr #0 !dbg !2520 {
start:
  %next_byte.dbg.spill = alloca [1 x i8], align 1
  %ch.dbg.spill16 = alloca [4 x i8], align 4
  %ch.dbg.spill14 = alloca [4 x i8], align 4
  %ch.dbg.spill = alloca [4 x i8], align 4
  %x.dbg.spill = alloca [1 x i8], align 1
  %val.dbg.spill11 = alloca [8 x i8], align 8
  %y.dbg.spill = alloca [1 x i8], align 1
  %val.dbg.spill9 = alloca [8 x i8], align 8
  %z.dbg.spill = alloca [1 x i8], align 1
  %val.dbg.spill7 = alloca [8 x i8], align 8
  %w.dbg.spill = alloca [1 x i8], align 1
  %val.dbg.spill = alloca [8 x i8], align 8
  %v.dbg.spill = alloca [8 x i8], align 8
  %width.dbg.spill5 = alloca [4 x i8], align 4
  %width.dbg.spill4 = alloca [4 x i8], align 4
  %width.dbg.spill = alloca [4 x i8], align 4
  %residual.dbg.spill = alloca [0 x i8], align 1
  %bytes.dbg.spill = alloca [8 x i8], align 8
  %self3 = alloca [8 x i8], align 8
  %self2 = alloca [8 x i8], align 8
  %self1 = alloca [8 x i8], align 8
  %ch = alloca [4 x i8], align 4
  %self = alloca [8 x i8], align 8
  %_2 = alloca [8 x i8], align 8
  %_0 = alloca [8 x i8], align 4
  store ptr %bytes, ptr %bytes.dbg.spill, align 8
    #dbg_declare(ptr %bytes.dbg.spill, !2527, !DIExpression(), !2560)
    #dbg_declare(ptr %self, !2561, !DIExpression(), !2597)
    #dbg_declare(ptr %ch, !2550, !DIExpression(), !2599)
    #dbg_declare(ptr %self1, !2600, !DIExpression(), !2612)
    #dbg_declare(ptr %self2, !2600, !DIExpression(), !2614)
    #dbg_declare(ptr %self3, !2600, !DIExpression(), !2616)
    #dbg_declare(ptr %residual.dbg.spill, !2530, !DIExpression(), !2618)
  store i32 2, ptr %width.dbg.spill, align 4, !dbg !2619
    #dbg_declare(ptr %width.dbg.spill, !2625, !DIExpression(), !2619)
  store i32 3, ptr %width.dbg.spill4, align 4, !dbg !2627
    #dbg_declare(ptr %width.dbg.spill4, !2625, !DIExpression(), !2627)
  store i32 4, ptr %width.dbg.spill5, align 4, !dbg !2629
    #dbg_declare(ptr %width.dbg.spill5, !2625, !DIExpression(), !2629)
; call <core::slice::iter::Iter<T> as core::iter::traits::double_ended::DoubleEndedIterator>::next_back
  %0 = call align 1 ptr @"_ZN106_$LT$core..slice..iter..Iter$LT$T$GT$$u20$as$u20$core..iter..traits..double_ended..DoubleEndedIterator$GT$9next_back17h2fde14ca94c49152E"(ptr align 8 %bytes), !dbg !2631
  store ptr %0, ptr %self, align 8, !dbg !2631
  %1 = load ptr, ptr %self, align 8, !dbg !2632
  %2 = ptrtoint ptr %1 to i64, !dbg !2632
  %3 = icmp eq i64 %2, 0, !dbg !2632
  %_31 = select i1 %3, i64 0, i64 1, !dbg !2632
  %4 = trunc nuw i64 %_31 to i1, !dbg !2633
  br i1 %4, label %bb17, label %bb16, !dbg !2633

bb17:                                             ; preds = %start
  %v = load ptr, ptr %self, align 8, !dbg !2634
  store ptr %v, ptr %v.dbg.spill, align 8, !dbg !2634
    #dbg_declare(ptr %v.dbg.spill, !2595, !DIExpression(), !2635)
  store ptr %v, ptr %_2, align 8, !dbg !2636
  %val = load ptr, ptr %_2, align 8, !dbg !2598
  store ptr %val, ptr %val.dbg.spill, align 8, !dbg !2598
    #dbg_declare(ptr %val.dbg.spill, !2543, !DIExpression(), !2637)
    #dbg_declare(ptr %val.dbg.spill, !2547, !DIExpression(), !2638)
  %w = load i8, ptr %val, align 1, !dbg !2639
  store i8 %w, ptr %w.dbg.spill, align 1, !dbg !2639
    #dbg_declare(ptr %w.dbg.spill, !2528, !DIExpression(), !2640)
    #dbg_declare(ptr %w.dbg.spill, !2548, !DIExpression(), !2641)
    #dbg_declare(ptr %w.dbg.spill, !2642, !DIExpression(), !2648)
  %_6 = icmp ult i8 %w, -128, !dbg !2639
  br i1 %_6, label %bb3, label %bb4, !dbg !2639

bb16:                                             ; preds = %start
  %5 = load i32, ptr @anon.284cfee5410ba401389a9c2a4c0ae086.3, align 4, !dbg !2650
  %6 = load i32, ptr getelementptr inbounds (i8, ptr @anon.284cfee5410ba401389a9c2a4c0ae086.3, i64 4), align 4, !dbg !2650
  store i32 %5, ptr %_0, align 4, !dbg !2650
  %7 = getelementptr inbounds i8, ptr %_0, i64 4, !dbg !2650
  store i32 %6, ptr %7, align 4, !dbg !2650
  br label %bb14, !dbg !2657

bb14:                                             ; preds = %bb3, %bb16
  br label %bb15, !dbg !2659

bb4:                                              ; preds = %bb17
; call <core::slice::iter::Iter<T> as core::iter::traits::double_ended::DoubleEndedIterator>::next_back
  %8 = call align 1 ptr @"_ZN106_$LT$core..slice..iter..Iter$LT$T$GT$$u20$as$u20$core..iter..traits..double_ended..DoubleEndedIterator$GT$9next_back17h2fde14ca94c49152E"(ptr align 8 %bytes), !dbg !2660
  store ptr %8, ptr %self1, align 8, !dbg !2660
  %9 = load ptr, ptr %self1, align 8, !dbg !2661
  %10 = ptrtoint ptr %9 to i64, !dbg !2661
  %11 = icmp eq i64 %10, 0, !dbg !2661
  %_33 = select i1 %11, i64 0, i64 1, !dbg !2661
  %12 = trunc nuw i64 %_33 to i1, !dbg !2662
  br i1 %12, label %bb19, label %bb18, !dbg !2662

bb3:                                              ; preds = %bb17
  %next_byte = load i8, ptr %val, align 1, !dbg !2663
  store i8 %next_byte, ptr %next_byte.dbg.spill, align 1, !dbg !2663
    #dbg_declare(ptr %next_byte.dbg.spill, !2545, !DIExpression(), !2638)
  %_8 = zext i8 %next_byte to i32, !dbg !2664
  %13 = getelementptr inbounds i8, ptr %_0, i64 4, !dbg !2665
  store i32 %_8, ptr %13, align 4, !dbg !2665
  store i32 1, ptr %_0, align 4, !dbg !2665
  br label %bb14, !dbg !2657

bb19:                                             ; preds = %bb4
  %val6 = load ptr, ptr %self1, align 8, !dbg !2666
  store ptr %val6, ptr %val.dbg.spill7, align 8, !dbg !2666
    #dbg_declare(ptr %val.dbg.spill7, !2606, !DIExpression(), !2667)
  %z = load i8, ptr %val6, align 1, !dbg !2668
  store i8 %z, ptr %z.dbg.spill, align 1, !dbg !2668
    #dbg_declare(ptr %z.dbg.spill, !2552, !DIExpression(), !2669)
    #dbg_declare(ptr %z.dbg.spill, !2624, !DIExpression(), !2670)
    #dbg_declare(ptr %z.dbg.spill, !2671, !DIExpression(), !2676)
    #dbg_declare(ptr %z.dbg.spill, !2642, !DIExpression(), !2678)
  %_36 = and i8 %z, 31, !dbg !2680
  %_13 = zext i8 %_36 to i32, !dbg !2680
  store i32 %_13, ptr %ch, align 4, !dbg !2681
  %_14 = icmp slt i8 %z, -64, !dbg !2682
  br i1 %_14, label %bb6, label %bb12, !dbg !2677

bb18:                                             ; preds = %bb4
; call core::hint::unreachable_unchecked::precondition_check
  call void @_ZN4core4hint21unreachable_unchecked18precondition_check17h0f418dd4a3220488E(ptr align 8 @alloc_c71e94473cb863e1e8af4c9a15838435) #14, !dbg !2683
  br label %bb2, !dbg !2683

bb2:                                              ; preds = %bb22, %bb20, %bb18
  unreachable, !dbg !2657

bb12:                                             ; preds = %bb19
  br label %bb13, !dbg !2687

bb6:                                              ; preds = %bb19
; call <core::slice::iter::Iter<T> as core::iter::traits::double_ended::DoubleEndedIterator>::next_back
  %14 = call align 1 ptr @"_ZN106_$LT$core..slice..iter..Iter$LT$T$GT$$u20$as$u20$core..iter..traits..double_ended..DoubleEndedIterator$GT$9next_back17h2fde14ca94c49152E"(ptr align 8 %bytes), !dbg !2688
  store ptr %14, ptr %self2, align 8, !dbg !2688
  %15 = load ptr, ptr %self2, align 8, !dbg !2689
  %16 = ptrtoint ptr %15 to i64, !dbg !2689
  %17 = icmp eq i64 %16, 0, !dbg !2689
  %_38 = select i1 %17, i64 0, i64 1, !dbg !2689
  %18 = trunc nuw i64 %_38 to i1, !dbg !2690
  br i1 %18, label %bb21, label %bb20, !dbg !2690

bb13:                                             ; preds = %bb11, %bb12
  %ch15 = load i32, ptr %ch, align 4, !dbg !2691
  store i32 %ch15, ptr %ch.dbg.spill16, align 4, !dbg !2691
    #dbg_declare(ptr %ch.dbg.spill16, !2647, !DIExpression(), !2692)
  %_53 = shl i32 %ch15, 6, !dbg !2693
  %_55 = and i8 %w, 63, !dbg !2694
  %_54 = zext i8 %_55 to i32, !dbg !2694
  %_28 = or i32 %_53, %_54, !dbg !2693
  store i32 %_28, ptr %ch, align 4, !dbg !2695
  %_30 = load i32, ptr %ch, align 4, !dbg !2696
  %19 = getelementptr inbounds i8, ptr %_0, i64 4, !dbg !2697
  store i32 %_30, ptr %19, align 4, !dbg !2697
  store i32 1, ptr %_0, align 4, !dbg !2697
  br label %bb15, !dbg !2659

bb21:                                             ; preds = %bb6
  %val8 = load ptr, ptr %self2, align 8, !dbg !2698
  store ptr %val8, ptr %val.dbg.spill9, align 8, !dbg !2698
    #dbg_declare(ptr %val.dbg.spill9, !2608, !DIExpression(), !2699)
  %y = load i8, ptr %val8, align 1, !dbg !2700
  store i8 %y, ptr %y.dbg.spill, align 1, !dbg !2700
    #dbg_declare(ptr %y.dbg.spill, !2554, !DIExpression(), !2701)
    #dbg_declare(ptr %y.dbg.spill, !2624, !DIExpression(), !2702)
    #dbg_declare(ptr %y.dbg.spill, !2671, !DIExpression(), !2703)
    #dbg_declare(ptr %y.dbg.spill, !2642, !DIExpression(), !2705)
  %_41 = and i8 %y, 15, !dbg !2707
  %_18 = zext i8 %_41 to i32, !dbg !2707
  store i32 %_18, ptr %ch, align 4, !dbg !2708
  %_19 = icmp slt i8 %y, -64, !dbg !2709
  br i1 %_19, label %bb8, label %bb10, !dbg !2704

bb20:                                             ; preds = %bb6
; call core::hint::unreachable_unchecked::precondition_check
  call void @_ZN4core4hint21unreachable_unchecked18precondition_check17h0f418dd4a3220488E(ptr align 8 @alloc_ef40dacc154336f4466375deffade821) #14, !dbg !2710
  br label %bb2, !dbg !2710

bb10:                                             ; preds = %bb21
  br label %bb11, !dbg !2713

bb8:                                              ; preds = %bb21
; call <core::slice::iter::Iter<T> as core::iter::traits::double_ended::DoubleEndedIterator>::next_back
  %20 = call align 1 ptr @"_ZN106_$LT$core..slice..iter..Iter$LT$T$GT$$u20$as$u20$core..iter..traits..double_ended..DoubleEndedIterator$GT$9next_back17h2fde14ca94c49152E"(ptr align 8 %bytes), !dbg !2714
  store ptr %20, ptr %self3, align 8, !dbg !2714
  %21 = load ptr, ptr %self3, align 8, !dbg !2715
  %22 = ptrtoint ptr %21 to i64, !dbg !2715
  %23 = icmp eq i64 %22, 0, !dbg !2715
  %_43 = select i1 %23, i64 0, i64 1, !dbg !2715
  %24 = trunc nuw i64 %_43 to i1, !dbg !2716
  br i1 %24, label %bb23, label %bb22, !dbg !2716

bb11:                                             ; preds = %bb23, %bb10
  %ch13 = load i32, ptr %ch, align 4, !dbg !2717
  store i32 %ch13, ptr %ch.dbg.spill14, align 4, !dbg !2717
    #dbg_declare(ptr %ch.dbg.spill14, !2647, !DIExpression(), !2718)
  %_50 = shl i32 %ch13, 6, !dbg !2719
  %_52 = and i8 %z, 63, !dbg !2720
  %_51 = zext i8 %_52 to i32, !dbg !2720
  %_26 = or i32 %_50, %_51, !dbg !2719
  store i32 %_26, ptr %ch, align 4, !dbg !2721
  br label %bb13, !dbg !2687

bb23:                                             ; preds = %bb8
  %val10 = load ptr, ptr %self3, align 8, !dbg !2722
  store ptr %val10, ptr %val.dbg.spill11, align 8, !dbg !2722
    #dbg_declare(ptr %val.dbg.spill11, !2610, !DIExpression(), !2723)
  %x = load i8, ptr %val10, align 1, !dbg !2724
  store i8 %x, ptr %x.dbg.spill, align 1, !dbg !2724
    #dbg_declare(ptr %x.dbg.spill, !2556, !DIExpression(), !2725)
    #dbg_declare(ptr %x.dbg.spill, !2624, !DIExpression(), !2726)
  %_46 = and i8 %x, 7, !dbg !2727
  %_23 = zext i8 %_46 to i32, !dbg !2727
  store i32 %_23, ptr %ch, align 4, !dbg !2728
  %ch12 = load i32, ptr %ch, align 4, !dbg !2729
  store i32 %ch12, ptr %ch.dbg.spill, align 4, !dbg !2729
    #dbg_declare(ptr %ch.dbg.spill, !2647, !DIExpression(), !2730)
  %_47 = shl i32 %ch12, 6, !dbg !2731
  %_49 = and i8 %y, 63, !dbg !2732
  %_48 = zext i8 %_49 to i32, !dbg !2732
  %_24 = or i32 %_47, %_48, !dbg !2731
  store i32 %_24, ptr %ch, align 4, !dbg !2733
  br label %bb11, !dbg !2713

bb22:                                             ; preds = %bb8
; call core::hint::unreachable_unchecked::precondition_check
  call void @_ZN4core4hint21unreachable_unchecked18precondition_check17h0f418dd4a3220488E(ptr align 8 @alloc_b83c0db509b95da8bedc31ee2fcabc45) #14, !dbg !2734
  br label %bb2, !dbg !2734

bb15:                                             ; preds = %bb14, %bb13
  %25 = load i32, ptr %_0, align 4, !dbg !2659
  %26 = getelementptr inbounds i8, ptr %_0, i64 4, !dbg !2659
  %27 = load i32, ptr %26, align 4, !dbg !2659
  %28 = insertvalue { i32, i32 } poison, i32 %25, 0, !dbg !2659
  %29 = insertvalue { i32, i32 } %28, i32 %27, 1, !dbg !2659
  ret { i32, i32 } %29, !dbg !2659
}

; core::str::<impl str>::trim_matches
; Function Attrs: uwtable
define internal { ptr, i64 } @"_ZN4core3str21_$LT$impl$u20$str$GT$12trim_matches17ha3b737d759dfe284E"(ptr align 1 %self.0, i64 %self.1) unnamed_addr #1 personality ptr @rust_eh_personality !dbg !2737 {
start:
  %data.dbg.spill = alloca [8 x i8], align 8
  %self.dbg.spill6 = alloca [8 x i8], align 8
  %new_len.dbg.spill = alloca [8 x i8], align 8
  %slice.dbg.spill = alloca [16 x i8], align 8
  %i.dbg.spill5 = alloca [8 x i8], align 8
  %i.dbg.spill = alloca [8 x i8], align 8
  %b.dbg.spill2 = alloca [8 x i8], align 8
  %b.dbg.spill = alloca [8 x i8], align 8
  %a.dbg.spill = alloca [8 x i8], align 8
  %0 = alloca [16 x i8], align 8
  %pat.dbg.spill = alloca [0 x i8], align 1
  %self.dbg.spill = alloca [16 x i8], align 8
  %_11 = alloca [24 x i8], align 8
  %_6 = alloca [24 x i8], align 8
  %matcher = alloca [40 x i8], align 8
  %j = alloca [8 x i8], align 8
  %i = alloca [8 x i8], align 8
  store ptr %self.0, ptr %self.dbg.spill, align 8
  %1 = getelementptr inbounds i8, ptr %self.dbg.spill, i64 8
  store i64 %self.1, ptr %1, align 8
    #dbg_declare(ptr %self.dbg.spill, !2741, !DIExpression(), !2756)
    #dbg_declare(ptr %self.dbg.spill, !2757, !DIExpression(), !2763)
    #dbg_declare(ptr %self.dbg.spill, !2765, !DIExpression(), !2786)
    #dbg_declare(ptr %pat.dbg.spill, !2742, !DIExpression(), !2788)
    #dbg_declare(ptr %i, !2743, !DIExpression(), !2789)
    #dbg_declare(ptr %j, !2745, !DIExpression(), !2790)
    #dbg_declare(ptr %matcher, !2747, !DIExpression(), !2791)
  store i64 0, ptr %i, align 8, !dbg !2792
  store i64 0, ptr %j, align 8, !dbg !2793
; call <F as core::str::pattern::Pattern>::into_searcher
  call void @"_ZN49_$LT$F$u20$as$u20$core..str..pattern..Pattern$GT$13into_searcher17h96a07b86035d279bE"(ptr sret([40 x i8]) align 8 %matcher, ptr align 1 %self.0, i64 %self.1), !dbg !2794
; invoke <core::str::pattern::CharPredicateSearcher<F> as core::str::pattern::Searcher>::next_reject
  invoke void @"_ZN99_$LT$core..str..pattern..CharPredicateSearcher$LT$F$GT$$u20$as$u20$core..str..pattern..Searcher$GT$11next_reject17hf45aa32965e8769eE"(ptr sret([24 x i8]) align 8 %_6, ptr align 8 %matcher)
          to label %bb2 unwind label %cleanup, !dbg !2795

bb11:                                             ; preds = %cleanup
  %2 = load ptr, ptr %0, align 8, !dbg !2796
  %3 = getelementptr inbounds i8, ptr %0, i64 8, !dbg !2796
  %4 = load i32, ptr %3, align 8, !dbg !2796
  %5 = insertvalue { ptr, i32 } poison, ptr %2, 0, !dbg !2796
  %6 = insertvalue { ptr, i32 } %5, i32 %4, 1, !dbg !2796
  resume { ptr, i32 } %6, !dbg !2796

cleanup:                                          ; preds = %bb5, %start
  %7 = landingpad { ptr, i32 }
          cleanup
  %8 = extractvalue { ptr, i32 } %7, 0
  %9 = extractvalue { ptr, i32 } %7, 1
  store ptr %8, ptr %0, align 8
  %10 = getelementptr inbounds i8, ptr %0, i64 8
  store i32 %9, ptr %10, align 8
  br label %bb11

bb2:                                              ; preds = %start
  %_8 = load i64, ptr %_6, align 8, !dbg !2797
  %11 = trunc nuw i64 %_8 to i1, !dbg !2798
  br i1 %11, label %bb3, label %bb4, !dbg !2798

bb3:                                              ; preds = %bb2
  %12 = getelementptr inbounds i8, ptr %_6, i64 8, !dbg !2799
  %a = load i64, ptr %12, align 8, !dbg !2799
  store i64 %a, ptr %a.dbg.spill, align 8, !dbg !2799
    #dbg_declare(ptr %a.dbg.spill, !2749, !DIExpression(), !2799)
  %13 = getelementptr inbounds i8, ptr %_6, i64 8, !dbg !2800
  %14 = getelementptr inbounds i8, ptr %13, i64 8, !dbg !2800
  %b = load i64, ptr %14, align 8, !dbg !2800
  store i64 %b, ptr %b.dbg.spill, align 8, !dbg !2800
    #dbg_declare(ptr %b.dbg.spill, !2751, !DIExpression(), !2800)
  store i64 %a, ptr %i, align 8, !dbg !2801
  store i64 %b, ptr %j, align 8, !dbg !2802
  br label %bb5, !dbg !2803

bb4:                                              ; preds = %bb2
  br label %bb5, !dbg !2803

bb5:                                              ; preds = %bb4, %bb3
; invoke <core::str::pattern::CharPredicateSearcher<F> as core::str::pattern::ReverseSearcher>::next_reject_back
  invoke void @"_ZN106_$LT$core..str..pattern..CharPredicateSearcher$LT$F$GT$$u20$as$u20$core..str..pattern..ReverseSearcher$GT$16next_reject_back17hd77f8716649dfb98E"(ptr sret([24 x i8]) align 8 %_11, ptr align 8 %matcher)
          to label %bb6 unwind label %cleanup, !dbg !2804

bb6:                                              ; preds = %bb5
  %_13 = load i64, ptr %_11, align 8, !dbg !2805
  %15 = trunc nuw i64 %_13 to i1, !dbg !2806
  br i1 %15, label %bb7, label %bb8, !dbg !2806

bb7:                                              ; preds = %bb6
  %16 = getelementptr inbounds i8, ptr %_11, i64 8, !dbg !2807
  %17 = getelementptr inbounds i8, ptr %16, i64 8, !dbg !2807
  %b1 = load i64, ptr %17, align 8, !dbg !2807
  store i64 %b1, ptr %b.dbg.spill2, align 8, !dbg !2807
    #dbg_declare(ptr %b.dbg.spill2, !2752, !DIExpression(), !2807)
  store i64 %b1, ptr %j, align 8, !dbg !2808
  br label %bb9, !dbg !2809

bb8:                                              ; preds = %bb6
  br label %bb9, !dbg !2809

bb9:                                              ; preds = %bb8, %bb7
  %i3 = load i64, ptr %i, align 8, !dbg !2810
  store i64 %i3, ptr %i.dbg.spill, align 8, !dbg !2810
    #dbg_declare(ptr %i.dbg.spill, !2762, !DIExpression(DW_OP_LLVM_fragment, 0, 64), !2811)
    #dbg_declare(ptr %i.dbg.spill, !2777, !DIExpression(DW_OP_LLVM_fragment, 0, 64), !2812)
    #dbg_declare(ptr %i.dbg.spill, !2813, !DIExpression(), !2819)
  %i4 = load i64, ptr %j, align 8, !dbg !2821
  store i64 %i4, ptr %i.dbg.spill5, align 8, !dbg !2821
    #dbg_declare(ptr %i.dbg.spill5, !2762, !DIExpression(DW_OP_LLVM_fragment, 64, 64), !2811)
    #dbg_declare(ptr %i.dbg.spill5, !2777, !DIExpression(DW_OP_LLVM_fragment, 64, 64), !2812)
  store ptr %self.0, ptr %slice.dbg.spill, align 8, !dbg !2822
  %18 = getelementptr inbounds i8, ptr %slice.dbg.spill, i64 8, !dbg !2822
  store i64 %self.1, ptr %18, align 8, !dbg !2822
    #dbg_declare(ptr %slice.dbg.spill, !2778, !DIExpression(), !2823)
    #dbg_declare(ptr %slice.dbg.spill, !2824, !DIExpression(), !2830)
    #dbg_declare(ptr %slice.dbg.spill, !2832, !DIExpression(), !2835)
    #dbg_declare(ptr %slice.dbg.spill, !2837, !DIExpression(), !2842)
  br label %bb13, !dbg !2844

bb13:                                             ; preds = %bb9
; call core::str::traits::<impl core::slice::index::SliceIndex<str> for core::ops::range::Range<usize>>::get_unchecked::precondition_check
  call void @"_ZN4core3str6traits108_$LT$impl$u20$core..slice..index..SliceIndex$LT$str$GT$$u20$for$u20$core..ops..range..Range$LT$usize$GT$$GT$13get_unchecked18precondition_check17h7e8207029ed4b00fE"(i64 %i3, i64 %i4, i64 %self.1, ptr align 8 @alloc_4d894ffb82954e545e1431d1150f77d0) #14, !dbg !2846
  br label %bb15, !dbg !2847

bb15:                                             ; preds = %bb13
  %new_len = sub nuw i64 %i4, %i3, !dbg !2848
  store i64 %new_len, ptr %new_len.dbg.spill, align 8, !dbg !2848
    #dbg_declare(ptr %new_len.dbg.spill, !2784, !DIExpression(), !2849)
    #dbg_declare(ptr %new_len.dbg.spill, !2850, !DIExpression(), !2856)
  store ptr %self.0, ptr %self.dbg.spill6, align 8, !dbg !2858
    #dbg_declare(ptr %self.dbg.spill6, !2818, !DIExpression(), !2859)
  %data = getelementptr inbounds nuw i8, ptr %self.0, i64 %i3, !dbg !2860
  store ptr %data, ptr %data.dbg.spill, align 8, !dbg !2860
    #dbg_declare(ptr %data.dbg.spill, !2855, !DIExpression(), !2861)
    #dbg_declare(ptr %data.dbg.spill, !2862, !DIExpression(), !2867)
  %19 = insertvalue { ptr, i64 } poison, ptr %data, 0, !dbg !2869
  %20 = insertvalue { ptr, i64 } %19, i64 %new_len, 1, !dbg !2869
  ret { ptr, i64 } %20, !dbg !2869

bb16:                                             ; No predecessors!
  unreachable, !dbg !2796
}

; core::str::<impl str>::trim
; Function Attrs: inlinehint uwtable
define internal { ptr, i64 } @"_ZN4core3str21_$LT$impl$u20$str$GT$4trim17he0f1fdacb32a59d2E"(ptr align 1 %self.0, i64 %self.1) unnamed_addr #0 !dbg !2870 {
start:
  %self.dbg.spill = alloca [16 x i8], align 8
  store ptr %self.0, ptr %self.dbg.spill, align 8
  %0 = getelementptr inbounds i8, ptr %self.dbg.spill, i64 8
  store i64 %self.1, ptr %0, align 8
    #dbg_declare(ptr %self.dbg.spill, !2874, !DIExpression(), !2875)
; call core::str::<impl str>::trim_matches
  %1 = call { ptr, i64 } @"_ZN4core3str21_$LT$impl$u20$str$GT$12trim_matches17ha3b737d759dfe284E"(ptr align 1 %self.0, i64 %self.1), !dbg !2876
  %_0.0 = extractvalue { ptr, i64 } %1, 0, !dbg !2876
  %_0.1 = extractvalue { ptr, i64 } %1, 1, !dbg !2876
  %2 = insertvalue { ptr, i64 } poison, ptr %_0.0, 0, !dbg !2877
  %3 = insertvalue { ptr, i64 } %2, i64 %_0.1, 1, !dbg !2877
  ret { ptr, i64 } %3, !dbg !2877
}

; core::str::<impl str>::chars
; Function Attrs: inlinehint uwtable
define internal { ptr, ptr } @"_ZN4core3str21_$LT$impl$u20$str$GT$5chars17ha2eb22747e7e7279E"(ptr align 1 %self.0, i64 %self.1) unnamed_addr #0 !dbg !2878 {
start:
  %self.dbg.spill = alloca [16 x i8], align 8
  store ptr %self.0, ptr %self.dbg.spill, align 8
  %0 = getelementptr inbounds i8, ptr %self.dbg.spill, i64 8
  store i64 %self.1, ptr %0, align 8
    #dbg_declare(ptr %self.dbg.spill, !2882, !DIExpression(), !2883)
    #dbg_declare(ptr %self.dbg.spill, !2884, !DIExpression(), !2887)
  %_7 = getelementptr inbounds nuw i8, ptr %self.0, i64 %self.1, !dbg !2889
  %1 = insertvalue { ptr, ptr } poison, ptr %self.0, 0, !dbg !2902
  %2 = insertvalue { ptr, ptr } %1, ptr %_7, 1, !dbg !2902
  ret { ptr, ptr } %2, !dbg !2902
}

; core::str::traits::<impl core::slice::index::SliceIndex<str> for core::ops::range::Range<usize>>::get_unchecked::precondition_check
; Function Attrs: inlinehint nounwind uwtable
define internal void @"_ZN4core3str6traits108_$LT$impl$u20$core..slice..index..SliceIndex$LT$str$GT$$u20$for$u20$core..ops..range..Range$LT$usize$GT$$GT$13get_unchecked18precondition_check17h7e8207029ed4b00fE"(i64 %start1, i64 %end, i64 %len, ptr align 8 %0) unnamed_addr #4 !dbg !2903 {
start:
  %pieces.dbg.spill = alloca [8 x i8], align 8
  %msg.dbg.spill = alloca [16 x i8], align 8
  %len.dbg.spill = alloca [8 x i8], align 8
  %end.dbg.spill = alloca [8 x i8], align 8
  %start.dbg.spill = alloca [8 x i8], align 8
  %_9 = alloca [16 x i8], align 8
  %_7 = alloca [48 x i8], align 8
  store i64 %start1, ptr %start.dbg.spill, align 8
    #dbg_declare(ptr %start.dbg.spill, !2908, !DIExpression(), !2913)
  store i64 %end, ptr %end.dbg.spill, align 8
    #dbg_declare(ptr %end.dbg.spill, !2909, !DIExpression(), !2913)
  store i64 %len, ptr %len.dbg.spill, align 8
    #dbg_declare(ptr %len.dbg.spill, !2910, !DIExpression(), !2913)
  store ptr @alloc_91f2a00ff2cd9cdc4bb205a66832e2bb, ptr %msg.dbg.spill, align 8, !dbg !2914
  %1 = getelementptr inbounds i8, ptr %msg.dbg.spill, i64 8, !dbg !2914
  store i64 219, ptr %1, align 8, !dbg !2914
    #dbg_declare(ptr %msg.dbg.spill, !2911, !DIExpression(), !2914)
  %_4 = icmp uge i64 %end, %start1, !dbg !2915
  br i1 %_4, label %bb1, label %bb3, !dbg !2915

bb3:                                              ; preds = %bb1, %start
  %2 = getelementptr inbounds nuw { ptr, i64 }, ptr %_9, i64 0, !dbg !2917
  store ptr @alloc_91f2a00ff2cd9cdc4bb205a66832e2bb, ptr %2, align 8, !dbg !2917
  %3 = getelementptr inbounds i8, ptr %2, i64 8, !dbg !2917
  store i64 219, ptr %3, align 8, !dbg !2917
  store ptr %_9, ptr %pieces.dbg.spill, align 8, !dbg !2918
    #dbg_declare(ptr %pieces.dbg.spill, !2919, !DIExpression(), !2922)
  store ptr %_9, ptr %_7, align 8, !dbg !2924
  %4 = getelementptr inbounds i8, ptr %_7, i64 8, !dbg !2924
  store i64 1, ptr %4, align 8, !dbg !2924
  %5 = load ptr, ptr @anon.284cfee5410ba401389a9c2a4c0ae086.2, align 8, !dbg !2924
  %6 = load i64, ptr getelementptr inbounds (i8, ptr @anon.284cfee5410ba401389a9c2a4c0ae086.2, i64 8), align 8, !dbg !2924
  %7 = getelementptr inbounds i8, ptr %_7, i64 32, !dbg !2924
  store ptr %5, ptr %7, align 8, !dbg !2924
  %8 = getelementptr inbounds i8, ptr %7, i64 8, !dbg !2924
  store i64 %6, ptr %8, align 8, !dbg !2924
  %9 = getelementptr inbounds i8, ptr %_7, i64 16, !dbg !2924
  store ptr inttoptr (i64 8 to ptr), ptr %9, align 8, !dbg !2924
  %10 = getelementptr inbounds i8, ptr %9, i64 8, !dbg !2924
  store i64 0, ptr %10, align 8, !dbg !2924
; call core::panicking::panic_nounwind_fmt
  call void @_ZN4core9panicking18panic_nounwind_fmt17h5a0053aaf4374c47E(ptr align 8 %_7, i1 zeroext false, ptr align 8 %0) #18, !dbg !2925
  unreachable, !dbg !2925

bb1:                                              ; preds = %start
  %_5 = icmp ule i64 %end, %len, !dbg !2926
  br i1 %_5, label %bb2, label %bb3, !dbg !2926

bb2:                                              ; preds = %bb1
  ret void, !dbg !2927
}

; core::str::traits::<impl core::slice::index::SliceIndex<str> for core::ops::range::Range<usize>>::get
; Function Attrs: inlinehint uwtable
define internal { ptr, i64 } @"_ZN4core3str6traits108_$LT$impl$u20$core..slice..index..SliceIndex$LT$str$GT$$u20$for$u20$core..ops..range..Range$LT$usize$GT$$GT$3get17h1df71a6c8bc467abE"(i64 %self.0, i64 %self.1, ptr align 1 %slice.0, i64 %slice.1) unnamed_addr #0 !dbg !2928 {
start:
  %data.dbg.spill = alloca [8 x i8], align 8
  %self.dbg.spill7 = alloca [8 x i8], align 8
  %new_len.dbg.spill = alloca [8 x i8], align 8
  %slice.dbg.spill6 = alloca [16 x i8], align 8
  %self.dbg.spill5 = alloca [1 x i8], align 1
  %self.dbg.spill2 = alloca [1 x i8], align 1
  %index.dbg.spill1 = alloca [8 x i8], align 8
  %index.dbg.spill = alloca [8 x i8], align 8
  %slice.dbg.spill = alloca [16 x i8], align 8
  %self.dbg.spill = alloca [16 x i8], align 8
  %_7 = alloca [1 x i8], align 1
  %_6 = alloca [1 x i8], align 1
  %_0 = alloca [16 x i8], align 8
  store i64 %self.0, ptr %self.dbg.spill, align 8
  %0 = getelementptr inbounds i8, ptr %self.dbg.spill, i64 8
  store i64 %self.1, ptr %0, align 8
    #dbg_declare(ptr %self.dbg.spill, !2943, !DIExpression(), !2945)
  store ptr %slice.0, ptr %slice.dbg.spill, align 8
  %1 = getelementptr inbounds i8, ptr %slice.dbg.spill, i64 8
  store i64 %slice.1, ptr %1, align 8
    #dbg_declare(ptr %slice.dbg.spill, !2944, !DIExpression(), !2946)
    #dbg_declare(ptr %slice.dbg.spill, !2947, !DIExpression(), !2953)
    #dbg_declare(ptr %slice.dbg.spill, !2955, !DIExpression(), !2960)
    #dbg_declare(ptr %slice.dbg.spill, !2962, !DIExpression(), !2965)
    #dbg_declare(ptr %slice.dbg.spill, !2955, !DIExpression(), !2967)
    #dbg_declare(ptr %slice.dbg.spill, !2962, !DIExpression(), !2969)
    #dbg_declare(ptr %slice.dbg.spill, !2962, !DIExpression(), !2972)
    #dbg_declare(ptr %slice.dbg.spill, !2947, !DIExpression(), !2974)
    #dbg_declare(ptr %slice.dbg.spill, !2955, !DIExpression(), !2976)
    #dbg_declare(ptr %slice.dbg.spill, !2962, !DIExpression(), !2979)
    #dbg_declare(ptr %slice.dbg.spill, !2955, !DIExpression(), !2982)
    #dbg_declare(ptr %slice.dbg.spill, !2962, !DIExpression(), !2984)
    #dbg_declare(ptr %slice.dbg.spill, !2962, !DIExpression(), !2987)
    #dbg_declare(ptr %slice.dbg.spill, !2989, !DIExpression(), !2997)
  store i64 %self.0, ptr %index.dbg.spill, align 8, !dbg !2999
    #dbg_declare(ptr %index.dbg.spill, !2952, !DIExpression(), !3000)
    #dbg_declare(ptr %index.dbg.spill, !2992, !DIExpression(DW_OP_LLVM_fragment, 0, 64), !3001)
    #dbg_declare(ptr %index.dbg.spill, !3002, !DIExpression(), !3006)
  store i64 %self.1, ptr %index.dbg.spill1, align 8, !dbg !3008
    #dbg_declare(ptr %index.dbg.spill1, !2952, !DIExpression(), !3009)
    #dbg_declare(ptr %index.dbg.spill1, !2992, !DIExpression(DW_OP_LLVM_fragment, 64, 64), !3001)
  %_3 = icmp ule i64 %self.0, %self.1, !dbg !2999
  br i1 %_3, label %bb1, label %bb6, !dbg !2999

bb6:                                              ; preds = %bb4, %bb5, %start
  %2 = load ptr, ptr @anon.284cfee5410ba401389a9c2a4c0ae086.2, align 8, !dbg !3010
  %3 = load i64, ptr getelementptr inbounds (i8, ptr @anon.284cfee5410ba401389a9c2a4c0ae086.2, i64 8), align 8, !dbg !3010
  store ptr %2, ptr %_0, align 8, !dbg !3010
  %4 = getelementptr inbounds i8, ptr %_0, i64 8, !dbg !3010
  store i64 %3, ptr %4, align 8, !dbg !3010
  br label %bb7, !dbg !3011

bb1:                                              ; preds = %start
  %5 = icmp eq i64 %self.0, 0, !dbg !3012
  br i1 %5, label %bb8, label %bb9, !dbg !3012

bb8:                                              ; preds = %bb1
  br label %bb2, !dbg !3013

bb9:                                              ; preds = %bb1
  %_11 = icmp uge i64 %self.0, %slice.1, !dbg !3014
  br i1 %_11, label %bb10, label %bb11, !dbg !3014

bb2:                                              ; preds = %bb13, %bb8
  %6 = icmp eq i64 %self.1, 0, !dbg !3015
  br i1 %6, label %bb14, label %bb15, !dbg !3015

bb11:                                             ; preds = %bb9
  %_14 = icmp ult i64 %self.0, %slice.1, !dbg !3016
  br i1 %_14, label %bb12, label %panic, !dbg !3016

bb10:                                             ; preds = %bb9
  %7 = icmp eq i64 %self.0, %slice.1, !dbg !3017
  %8 = zext i1 %7 to i8, !dbg !3017
  store i8 %8, ptr %_6, align 1, !dbg !3017
  br label %bb13, !dbg !3018

bb12:                                             ; preds = %bb11
  %9 = getelementptr inbounds nuw i8, ptr %slice.0, i64 %self.0, !dbg !3016
  %self = load i8, ptr %9, align 1, !dbg !3016
  store i8 %self, ptr %self.dbg.spill2, align 1, !dbg !3016
    #dbg_declare(ptr %self.dbg.spill2, !3019, !DIExpression(), !3022)
  %10 = icmp sge i8 %self, -64, !dbg !3024
  %11 = zext i1 %10 to i8, !dbg !3024
  store i8 %11, ptr %_6, align 1, !dbg !3024
  br label %bb13, !dbg !3018

panic:                                            ; preds = %bb11
; call core::panicking::panic_bounds_check
  call void @_ZN4core9panicking18panic_bounds_check17h784b038fd17bdd2eE(i64 %self.0, i64 %slice.1, ptr align 8 @alloc_d50327e237e44874813195fb45f3360f) #17, !dbg !3016
  unreachable, !dbg !3016

bb13:                                             ; preds = %bb10, %bb12
  %12 = load i8, ptr %_6, align 1, !dbg !3013
  %13 = trunc nuw i8 %12 to i1, !dbg !3013
  br i1 %13, label %bb2, label %bb5, !dbg !3013

bb5:                                              ; preds = %bb13
  br label %bb6, !dbg !3025

bb14:                                             ; preds = %bb2
  br label %bb3, !dbg !3027

bb15:                                             ; preds = %bb2
  %_17 = icmp uge i64 %self.1, %slice.1, !dbg !3028
  br i1 %_17, label %bb16, label %bb17, !dbg !3028

bb3:                                              ; preds = %bb19, %bb14
  store ptr %slice.0, ptr %slice.dbg.spill6, align 8, !dbg !3029
  %14 = getelementptr inbounds i8, ptr %slice.dbg.spill6, i64 8, !dbg !3029
  store i64 %slice.1, ptr %14, align 8, !dbg !3029
    #dbg_declare(ptr %slice.dbg.spill6, !2993, !DIExpression(), !3030)
    #dbg_declare(ptr %slice.dbg.spill6, !3031, !DIExpression(), !3034)
    #dbg_declare(ptr %slice.dbg.spill6, !3036, !DIExpression(), !3039)
    #dbg_declare(ptr %slice.dbg.spill6, !3041, !DIExpression(), !3044)
  br label %bb20, !dbg !3046

bb17:                                             ; preds = %bb15
  %_20 = icmp ult i64 %self.1, %slice.1, !dbg !3048
  br i1 %_20, label %bb18, label %panic3, !dbg !3048

bb16:                                             ; preds = %bb15
  %15 = icmp eq i64 %self.1, %slice.1, !dbg !3049
  %16 = zext i1 %15 to i8, !dbg !3049
  store i8 %16, ptr %_7, align 1, !dbg !3049
  br label %bb19, !dbg !3050

bb18:                                             ; preds = %bb17
  %17 = getelementptr inbounds nuw i8, ptr %slice.0, i64 %self.1, !dbg !3048
  %self4 = load i8, ptr %17, align 1, !dbg !3048
  store i8 %self4, ptr %self.dbg.spill5, align 1, !dbg !3048
    #dbg_declare(ptr %self.dbg.spill5, !3019, !DIExpression(), !3051)
  %18 = icmp sge i8 %self4, -64, !dbg !3053
  %19 = zext i1 %18 to i8, !dbg !3053
  store i8 %19, ptr %_7, align 1, !dbg !3053
  br label %bb19, !dbg !3050

panic3:                                           ; preds = %bb17
; call core::panicking::panic_bounds_check
  call void @_ZN4core9panicking18panic_bounds_check17h784b038fd17bdd2eE(i64 %self.1, i64 %slice.1, ptr align 8 @alloc_d50327e237e44874813195fb45f3360f) #17, !dbg !3048
  unreachable, !dbg !3048

bb19:                                             ; preds = %bb16, %bb18
  %20 = load i8, ptr %_7, align 1, !dbg !3027
  %21 = trunc nuw i8 %20 to i1, !dbg !3027
  br i1 %21, label %bb3, label %bb4, !dbg !3027

bb4:                                              ; preds = %bb19
  br label %bb6, !dbg !3025

bb7:                                              ; preds = %bb22, %bb6
  %22 = load ptr, ptr %_0, align 8, !dbg !3054
  %23 = getelementptr inbounds i8, ptr %_0, i64 8, !dbg !3054
  %24 = load i64, ptr %23, align 8, !dbg !3054
  %25 = insertvalue { ptr, i64 } poison, ptr %22, 0, !dbg !3054
  %26 = insertvalue { ptr, i64 } %25, i64 %24, 1, !dbg !3054
  ret { ptr, i64 } %26, !dbg !3054

bb20:                                             ; preds = %bb3
; call core::str::traits::<impl core::slice::index::SliceIndex<str> for core::ops::range::Range<usize>>::get_unchecked::precondition_check
  call void @"_ZN4core3str6traits108_$LT$impl$u20$core..slice..index..SliceIndex$LT$str$GT$$u20$for$u20$core..ops..range..Range$LT$usize$GT$$GT$13get_unchecked18precondition_check17h7e8207029ed4b00fE"(i64 %self.0, i64 %self.1, i64 %slice.1, ptr align 8 @alloc_b03dc811e1bc916f6010775018c87853) #14, !dbg !3055
  br label %bb22, !dbg !3056

bb22:                                             ; preds = %bb20
  %new_len = sub nuw i64 %self.1, %self.0, !dbg !3057
  store i64 %new_len, ptr %new_len.dbg.spill, align 8, !dbg !3057
    #dbg_declare(ptr %new_len.dbg.spill, !2995, !DIExpression(), !3058)
    #dbg_declare(ptr %new_len.dbg.spill, !3059, !DIExpression(), !3063)
  store ptr %slice.0, ptr %self.dbg.spill7, align 8, !dbg !3065
    #dbg_declare(ptr %self.dbg.spill7, !3005, !DIExpression(), !3066)
  %data = getelementptr inbounds nuw i8, ptr %slice.0, i64 %self.0, !dbg !3067
  store ptr %data, ptr %data.dbg.spill, align 8, !dbg !3067
    #dbg_declare(ptr %data.dbg.spill, !3062, !DIExpression(), !3068)
    #dbg_declare(ptr %data.dbg.spill, !3069, !DIExpression(), !3072)
  store ptr %data, ptr %_0, align 8, !dbg !3074
  %27 = getelementptr inbounds i8, ptr %_0, i64 8, !dbg !3074
  store i64 %new_len, ptr %27, align 8, !dbg !3074
  br label %bb7, !dbg !3011
}

; core::str::traits::<impl core::slice::index::SliceIndex<str> for core::ops::range::Range<usize>>::index
; Function Attrs: inlinehint uwtable
define internal { ptr, i64 } @"_ZN4core3str6traits108_$LT$impl$u20$core..slice..index..SliceIndex$LT$str$GT$$u20$for$u20$core..ops..range..Range$LT$usize$GT$$GT$5index17h93a474d606e8f38cE"(i64 %self.0, i64 %self.1, ptr align 1 %slice.0, i64 %slice.1, ptr align 8 %0) unnamed_addr #0 !dbg !3075 {
start:
  %s.dbg.spill = alloca [16 x i8], align 8
  %end.dbg.spill = alloca [8 x i8], align 8
  %start.dbg.spill = alloca [8 x i8], align 8
  %slice.dbg.spill = alloca [16 x i8], align 8
  %self.dbg.spill = alloca [16 x i8], align 8
  %_5 = alloca [16 x i8], align 8
  store i64 %self.0, ptr %self.dbg.spill, align 8
  %1 = getelementptr inbounds i8, ptr %self.dbg.spill, i64 8
  store i64 %self.1, ptr %1, align 8
    #dbg_declare(ptr %self.dbg.spill, !3079, !DIExpression(), !3086)
  store ptr %slice.0, ptr %slice.dbg.spill, align 8
  %2 = getelementptr inbounds i8, ptr %slice.dbg.spill, i64 8
  store i64 %slice.1, ptr %2, align 8
    #dbg_declare(ptr %slice.dbg.spill, !3080, !DIExpression(), !3087)
  store i64 %self.0, ptr %start.dbg.spill, align 8, !dbg !3088
    #dbg_declare(ptr %start.dbg.spill, !3081, !DIExpression(), !3089)
  store i64 %self.1, ptr %end.dbg.spill, align 8, !dbg !3090
    #dbg_declare(ptr %end.dbg.spill, !3083, !DIExpression(), !3091)
; call core::str::traits::<impl core::slice::index::SliceIndex<str> for core::ops::range::Range<usize>>::get
  %3 = call { ptr, i64 } @"_ZN4core3str6traits108_$LT$impl$u20$core..slice..index..SliceIndex$LT$str$GT$$u20$for$u20$core..ops..range..Range$LT$usize$GT$$GT$3get17h1df71a6c8bc467abE"(i64 %self.0, i64 %self.1, ptr align 1 %slice.0, i64 %slice.1), !dbg !3092
  %4 = extractvalue { ptr, i64 } %3, 0, !dbg !3092
  %5 = extractvalue { ptr, i64 } %3, 1, !dbg !3092
  store ptr %4, ptr %_5, align 8, !dbg !3092
  %6 = getelementptr inbounds i8, ptr %_5, i64 8, !dbg !3092
  store i64 %5, ptr %6, align 8, !dbg !3092
  %7 = load ptr, ptr %_5, align 8, !dbg !3093
  %8 = getelementptr inbounds i8, ptr %_5, i64 8, !dbg !3093
  %9 = load i64, ptr %8, align 8, !dbg !3093
  %10 = ptrtoint ptr %7 to i64, !dbg !3093
  %11 = icmp eq i64 %10, 0, !dbg !3093
  %_6 = select i1 %11, i64 0, i64 1, !dbg !3093
  %12 = trunc nuw i64 %_6 to i1, !dbg !3094
  br i1 %12, label %bb4, label %bb3, !dbg !3094

bb4:                                              ; preds = %start
  %s.0 = load ptr, ptr %_5, align 8, !dbg !3095
  %13 = getelementptr inbounds i8, ptr %_5, i64 8, !dbg !3095
  %s.1 = load i64, ptr %13, align 8, !dbg !3095
  store ptr %s.0, ptr %s.dbg.spill, align 8, !dbg !3095
  %14 = getelementptr inbounds i8, ptr %s.dbg.spill, i64 8, !dbg !3095
  store i64 %s.1, ptr %14, align 8, !dbg !3095
    #dbg_declare(ptr %s.dbg.spill, !3084, !DIExpression(), !3096)
  %15 = insertvalue { ptr, i64 } poison, ptr %s.0, 0, !dbg !3097
  %16 = insertvalue { ptr, i64 } %15, i64 %s.1, 1, !dbg !3097
  ret { ptr, i64 } %16, !dbg !3097

bb3:                                              ; preds = %start
; call core::str::slice_error_fail
  call void @_ZN4core3str16slice_error_fail17h95749cc5b3691716E(ptr align 1 %slice.0, i64 %slice.1, i64 %self.0, i64 %self.1, ptr align 8 %0) #17, !dbg !3098
  unreachable, !dbg !3098

bb2:                                              ; No predecessors!
  unreachable, !dbg !3093
}

; core::str::<impl core::convert::AsRef<[u8]> for str>::as_ref
; Function Attrs: inlinehint uwtable
define internal { ptr, i64 } @"_ZN4core3str74_$LT$impl$u20$core..convert..AsRef$LT$$u5b$u8$u5d$$GT$$u20$for$u20$str$GT$6as_ref17h96b56b63acb52909E"(ptr align 1 %self.0, i64 %self.1) unnamed_addr #0 !dbg !3099 {
start:
  %self.dbg.spill = alloca [16 x i8], align 8
  store ptr %self.0, ptr %self.dbg.spill, align 8
  %0 = getelementptr inbounds i8, ptr %self.dbg.spill, i64 8
  store i64 %self.1, ptr %0, align 8
    #dbg_declare(ptr %self.dbg.spill, !3102, !DIExpression(), !3103)
    #dbg_declare(ptr %self.dbg.spill, !3104, !DIExpression(), !3107)
  %1 = insertvalue { ptr, i64 } poison, ptr %self.0, 0, !dbg !3109
  %2 = insertvalue { ptr, i64 } %1, i64 %self.1, 1, !dbg !3109
  ret { ptr, i64 } %2, !dbg !3109
}

; core::str::pattern::ReverseSearcher::next_reject_back
; Function Attrs: inlinehint uwtable
define internal void @_ZN4core3str7pattern15ReverseSearcher16next_reject_back17h907e083bdc1d16e9E(ptr sret([24 x i8]) align 8 %_0, ptr align 8 %self) unnamed_addr #0 !dbg !3110 {
start:
  %b.dbg.spill = alloca [8 x i8], align 8
  %a.dbg.spill = alloca [8 x i8], align 8
  %self.dbg.spill = alloca [8 x i8], align 8
  %_2 = alloca [24 x i8], align 8
  store ptr %self, ptr %self.dbg.spill, align 8
    #dbg_declare(ptr %self.dbg.spill, !3115, !DIExpression(), !3121)
  br label %bb1, !dbg !3122

bb1:                                              ; preds = %bb5, %start
; call <core::str::pattern::MultiCharEqSearcher<C> as core::str::pattern::ReverseSearcher>::next_back
  call void @"_ZN104_$LT$core..str..pattern..MultiCharEqSearcher$LT$C$GT$$u20$as$u20$core..str..pattern..ReverseSearcher$GT$9next_back17haf7916a9487c0a4eE"(ptr sret([24 x i8]) align 8 %_2, ptr align 8 %self), !dbg !3123
  %_3 = load i64, ptr %_2, align 8, !dbg !3124
  switch i64 %_3, label %bb7 [
    i64 1, label %bb4
    i64 2, label %bb3
    i64 0, label %bb5
  ], !dbg !3125

bb7:                                              ; preds = %bb1
  unreachable, !dbg !3126

bb4:                                              ; preds = %bb1
  %0 = getelementptr inbounds i8, ptr %_2, i64 8, !dbg !3127
  %a = load i64, ptr %0, align 8, !dbg !3127
  store i64 %a, ptr %a.dbg.spill, align 8, !dbg !3127
    #dbg_declare(ptr %a.dbg.spill, !3116, !DIExpression(), !3128)
  %1 = getelementptr inbounds i8, ptr %_2, i64 16, !dbg !3129
  %b = load i64, ptr %1, align 8, !dbg !3129
  store i64 %b, ptr %b.dbg.spill, align 8, !dbg !3129
    #dbg_declare(ptr %b.dbg.spill, !3118, !DIExpression(), !3130)
  %2 = getelementptr inbounds i8, ptr %_0, i64 8, !dbg !3131
  store i64 %a, ptr %2, align 8, !dbg !3131
  %3 = getelementptr inbounds i8, ptr %2, i64 8, !dbg !3131
  store i64 %b, ptr %3, align 8, !dbg !3131
  store i64 1, ptr %_0, align 8, !dbg !3131
  br label %bb6, !dbg !3132

bb3:                                              ; preds = %bb1
  store i64 0, ptr %_0, align 8, !dbg !3134
  br label %bb6, !dbg !3135

bb5:                                              ; preds = %bb1
  br label %bb1, !dbg !3132

bb6:                                              ; preds = %bb3, %bb4
  ret void, !dbg !3136
}

; core::str::pattern::Searcher::next_reject
; Function Attrs: inlinehint uwtable
define internal void @_ZN4core3str7pattern8Searcher11next_reject17h83685e138c1d6c9fE(ptr sret([24 x i8]) align 8 %_0, ptr align 8 %self) unnamed_addr #0 !dbg !3137 {
start:
  %b.dbg.spill = alloca [8 x i8], align 8
  %a.dbg.spill = alloca [8 x i8], align 8
  %self.dbg.spill = alloca [8 x i8], align 8
  %_2 = alloca [24 x i8], align 8
  store ptr %self, ptr %self.dbg.spill, align 8
    #dbg_declare(ptr %self.dbg.spill, !3140, !DIExpression(), !3144)
  br label %bb1, !dbg !3145

bb1:                                              ; preds = %bb5, %start
; call <core::str::pattern::MultiCharEqSearcher<C> as core::str::pattern::Searcher>::next
  call void @"_ZN97_$LT$core..str..pattern..MultiCharEqSearcher$LT$C$GT$$u20$as$u20$core..str..pattern..Searcher$GT$4next17he27d796d2653c3bbE"(ptr sret([24 x i8]) align 8 %_2, ptr align 8 %self), !dbg !3146
  %_3 = load i64, ptr %_2, align 8, !dbg !3147
  switch i64 %_3, label %bb7 [
    i64 1, label %bb4
    i64 2, label %bb3
    i64 0, label %bb5
  ], !dbg !3148

bb7:                                              ; preds = %bb1
  unreachable, !dbg !3149

bb4:                                              ; preds = %bb1
  %0 = getelementptr inbounds i8, ptr %_2, i64 8, !dbg !3150
  %a = load i64, ptr %0, align 8, !dbg !3150
  store i64 %a, ptr %a.dbg.spill, align 8, !dbg !3150
    #dbg_declare(ptr %a.dbg.spill, !3141, !DIExpression(), !3151)
  %1 = getelementptr inbounds i8, ptr %_2, i64 16, !dbg !3152
  %b = load i64, ptr %1, align 8, !dbg !3152
  store i64 %b, ptr %b.dbg.spill, align 8, !dbg !3152
    #dbg_declare(ptr %b.dbg.spill, !3143, !DIExpression(), !3153)
  %2 = getelementptr inbounds i8, ptr %_0, i64 8, !dbg !3154
  store i64 %a, ptr %2, align 8, !dbg !3154
  %3 = getelementptr inbounds i8, ptr %2, i64 8, !dbg !3154
  store i64 %b, ptr %3, align 8, !dbg !3154
  store i64 1, ptr %_0, align 8, !dbg !3154
  br label %bb6, !dbg !3155

bb3:                                              ; preds = %bb1
  store i64 0, ptr %_0, align 8, !dbg !3157
  br label %bb6, !dbg !3158

bb5:                                              ; preds = %bb1
  br label %bb1, !dbg !3155

bb6:                                              ; preds = %bb3, %bb4
  ret void, !dbg !3159
}

; core::char::convert::from_u32_unchecked::precondition_check
; Function Attrs: inlinehint nounwind uwtable
define internal void @_ZN4core4char7convert18from_u32_unchecked18precondition_check17he0f674290b0eded6E(i32 %i, ptr align 8 %0) unnamed_addr #4 !dbg !3160 {
start:
  %pieces.dbg.spill = alloca [8 x i8], align 8
  %self.dbg.spill1 = alloca [8 x i8], align 8
  %self.dbg.spill = alloca [4 x i8], align 4
  %rhs.dbg.spill = alloca [4 x i8], align 4
  %msg.dbg.spill = alloca [16 x i8], align 8
  %i.dbg.spill = alloca [4 x i8], align 4
  %_7 = alloca [16 x i8], align 8
  %_5 = alloca [48 x i8], align 8
  %_3 = alloca [4 x i8], align 4
  store i32 %i, ptr %i.dbg.spill, align 4
    #dbg_declare(ptr %i.dbg.spill, !3165, !DIExpression(), !3168)
    #dbg_declare(ptr %i.dbg.spill, !3169, !DIExpression(), !3192)
  store ptr @alloc_4dc07e69e5d34e9d1484dfbbef0bb9b1, ptr %msg.dbg.spill, align 8, !dbg !3195
  %1 = getelementptr inbounds i8, ptr %msg.dbg.spill, i64 8, !dbg !3195
  store i64 174, ptr %1, align 8, !dbg !3195
    #dbg_declare(ptr %msg.dbg.spill, !3166, !DIExpression(), !3195)
  store i32 2048, ptr %rhs.dbg.spill, align 4, !dbg !3196
    #dbg_declare(ptr %rhs.dbg.spill, !3203, !DIExpression(), !3196)
  %self = xor i32 %i, 55296, !dbg !3205
  store i32 %self, ptr %self.dbg.spill, align 4, !dbg !3205
    #dbg_declare(ptr %self.dbg.spill, !3202, !DIExpression(), !3206)
  %_9 = sub i32 %self, 2048, !dbg !3207
  %_8 = icmp uge i32 %_9, 1112064, !dbg !3205
  br i1 %_8, label %bb3, label %bb4, !dbg !3205

bb4:                                              ; preds = %start
  store i32 %i, ptr %_3, align 4, !dbg !3208
  br label %bb5, !dbg !3209

bb3:                                              ; preds = %start
  store i32 1114112, ptr %_3, align 4, !dbg !3210
  br label %bb5, !dbg !3209

bb5:                                              ; preds = %bb3, %bb4
  store ptr %_3, ptr %self.dbg.spill1, align 8, !dbg !3193
    #dbg_declare(ptr %self.dbg.spill1, !3211, !DIExpression(), !3218)
  %2 = load i32, ptr %_3, align 4, !dbg !3220
  %3 = icmp eq i32 %2, 1114112, !dbg !3220
  %_12 = select i1 %3, i64 1, i64 0, !dbg !3220
  %4 = icmp eq i64 %_12, 0, !dbg !3193
  br i1 %4, label %bb1, label %bb2, !dbg !3193

bb1:                                              ; preds = %bb5
  ret void, !dbg !3221

bb2:                                              ; preds = %bb5
  %5 = getelementptr inbounds nuw { ptr, i64 }, ptr %_7, i64 0, !dbg !3222
  store ptr @alloc_4dc07e69e5d34e9d1484dfbbef0bb9b1, ptr %5, align 8, !dbg !3222
  %6 = getelementptr inbounds i8, ptr %5, i64 8, !dbg !3222
  store i64 174, ptr %6, align 8, !dbg !3222
  store ptr %_7, ptr %pieces.dbg.spill, align 8, !dbg !3223
    #dbg_declare(ptr %pieces.dbg.spill, !3224, !DIExpression(), !3227)
  store ptr %_7, ptr %_5, align 8, !dbg !3229
  %7 = getelementptr inbounds i8, ptr %_5, i64 8, !dbg !3229
  store i64 1, ptr %7, align 8, !dbg !3229
  %8 = load ptr, ptr @anon.284cfee5410ba401389a9c2a4c0ae086.2, align 8, !dbg !3229
  %9 = load i64, ptr getelementptr inbounds (i8, ptr @anon.284cfee5410ba401389a9c2a4c0ae086.2, i64 8), align 8, !dbg !3229
  %10 = getelementptr inbounds i8, ptr %_5, i64 32, !dbg !3229
  store ptr %8, ptr %10, align 8, !dbg !3229
  %11 = getelementptr inbounds i8, ptr %10, i64 8, !dbg !3229
  store i64 %9, ptr %11, align 8, !dbg !3229
  %12 = getelementptr inbounds i8, ptr %_5, i64 16, !dbg !3229
  store ptr inttoptr (i64 8 to ptr), ptr %12, align 8, !dbg !3229
  %13 = getelementptr inbounds i8, ptr %12, i64 8, !dbg !3229
  store i64 0, ptr %13, align 8, !dbg !3229
; call core::panicking::panic_nounwind_fmt
  call void @_ZN4core9panicking18panic_nounwind_fmt17h5a0053aaf4374c47E(ptr align 8 %_5, i1 zeroext false, ptr align 8 %0) #18, !dbg !3230
  unreachable, !dbg !3230
}

; core::char::methods::<impl char>::is_whitespace
; Function Attrs: inlinehint uwtable
define internal zeroext i1 @"_ZN4core4char7methods22_$LT$impl$u20$char$GT$13is_whitespace17h77562e6eeb51cb75E"(i32 %self) unnamed_addr #0 !dbg !3231 {
start:
  %self.dbg.spill = alloca [4 x i8], align 4
  %_0 = alloca [1 x i8], align 1
  store i32 %self, ptr %self.dbg.spill, align 4
    #dbg_declare(ptr %self.dbg.spill, !3233, !DIExpression(), !3236)
    #dbg_declare(ptr %self.dbg.spill, !3234, !DIExpression(), !3237)
  %0 = icmp eq i32 %self, 32, !dbg !3238
  br i1 %0, label %bb4, label %bb2, !dbg !3238

bb4:                                              ; preds = %bb3, %start
  store i8 1, ptr %_0, align 1, !dbg !3239
  br label %bb8, !dbg !3239

bb2:                                              ; preds = %start
  %_2 = icmp ule i32 9, %self, !dbg !3240
  br i1 %_2, label %bb3, label %bb1, !dbg !3240

bb1:                                              ; preds = %bb3, %bb2
  %_4 = icmp ugt i32 %self, 127, !dbg !3241
  br i1 %_4, label %bb5, label %bb6, !dbg !3241

bb3:                                              ; preds = %bb2
  %_3 = icmp ule i32 %self, 13, !dbg !3240
  br i1 %_3, label %bb4, label %bb1, !dbg !3240

bb6:                                              ; preds = %bb1
  store i8 0, ptr %_0, align 1, !dbg !3241
  br label %bb7, !dbg !3241

bb5:                                              ; preds = %bb1
; call core::unicode::unicode_data::white_space::lookup
  %1 = call zeroext i1 @_ZN4core7unicode12unicode_data11white_space6lookup17h169dbd3aed5d916eE(i32 %self), !dbg !3242
  %2 = zext i1 %1 to i8, !dbg !3242
  store i8 %2, ptr %_0, align 1, !dbg !3242
  br label %bb7, !dbg !3242

bb7:                                              ; preds = %bb5, %bb6
  br label %bb8, !dbg !3243

bb8:                                              ; preds = %bb4, %bb7
  %3 = load i8, ptr %_0, align 1, !dbg !3244
  %4 = trunc nuw i8 %3 to i1, !dbg !3244
  ret i1 %4, !dbg !3244
}

; core::char::methods::<impl char>::to_digit
; Function Attrs: inlinehint uwtable
define internal { i32, i32 } @"_ZN4core4char7methods22_$LT$impl$u20$char$GT$8to_digit17h1b11bb4838bef225E"(i32 %self, i32 %radix) unnamed_addr #0 !dbg !3245 {
start:
  %self.dbg.spill3 = alloca [4 x i8], align 4
  %self.dbg.spill2 = alloca [4 x i8], align 4
  %rhs.dbg.spill1 = alloca [4 x i8], align 4
  %rhs.dbg.spill = alloca [4 x i8], align 4
  %pieces.dbg.spill = alloca [8 x i8], align 8
  %radix.dbg.spill = alloca [4 x i8], align 4
  %self.dbg.spill = alloca [4 x i8], align 4
  %value = alloca [4 x i8], align 4
  %_6 = alloca [48 x i8], align 8
  %_0 = alloca [8 x i8], align 4
  store i32 %self, ptr %self.dbg.spill, align 4
    #dbg_declare(ptr %self.dbg.spill, !3249, !DIExpression(), !3253)
  store i32 %radix, ptr %radix.dbg.spill, align 4
    #dbg_declare(ptr %radix.dbg.spill, !3250, !DIExpression(), !3254)
    #dbg_declare(ptr %value, !3251, !DIExpression(), !3255)
  store ptr @alloc_708eb9f2492b697e0d761b647be5d46c, ptr %pieces.dbg.spill, align 8, !dbg !3256
    #dbg_declare(ptr %pieces.dbg.spill, !3259, !DIExpression(), !3256)
  store i32 65, ptr %rhs.dbg.spill, align 4, !dbg !3261
    #dbg_declare(ptr %rhs.dbg.spill, !3265, !DIExpression(), !3261)
  store i32 48, ptr %rhs.dbg.spill1, align 4, !dbg !3267
    #dbg_declare(ptr %rhs.dbg.spill1, !3265, !DIExpression(), !3267)
  %_3 = icmp uge i32 %radix, 2, !dbg !3269
  br i1 %_3, label %bb1, label %bb3, !dbg !3269

bb3:                                              ; preds = %bb1, %start
  store ptr @alloc_708eb9f2492b697e0d761b647be5d46c, ptr %_6, align 8, !dbg !3270
  %0 = getelementptr inbounds i8, ptr %_6, i64 8, !dbg !3270
  store i64 1, ptr %0, align 8, !dbg !3270
  %1 = load ptr, ptr @anon.284cfee5410ba401389a9c2a4c0ae086.2, align 8, !dbg !3270
  %2 = load i64, ptr getelementptr inbounds (i8, ptr @anon.284cfee5410ba401389a9c2a4c0ae086.2, i64 8), align 8, !dbg !3270
  %3 = getelementptr inbounds i8, ptr %_6, i64 32, !dbg !3270
  store ptr %1, ptr %3, align 8, !dbg !3270
  %4 = getelementptr inbounds i8, ptr %3, i64 8, !dbg !3270
  store i64 %2, ptr %4, align 8, !dbg !3270
  %5 = getelementptr inbounds i8, ptr %_6, i64 16, !dbg !3270
  store ptr inttoptr (i64 8 to ptr), ptr %5, align 8, !dbg !3270
  %6 = getelementptr inbounds i8, ptr %5, i64 8, !dbg !3270
  store i64 0, ptr %6, align 8, !dbg !3270
; call core::panicking::panic_fmt
  call void @_ZN4core9panicking9panic_fmt17hd8bd6cb86ff62669E(ptr align 8 %_6, ptr align 8 @alloc_d64897e134e0ace99c1669fbf38164f9) #17, !dbg !3260
  unreachable, !dbg !3260

bb1:                                              ; preds = %start
  %_4 = icmp ule i32 %radix, 36, !dbg !3271
  br i1 %_4, label %bb2, label %bb3, !dbg !3271

bb2:                                              ; preds = %bb1
  %_8 = icmp ugt i32 %self, 57, !dbg !3272
  br i1 %_8, label %bb4, label %bb6, !dbg !3272

bb6:                                              ; preds = %bb4, %bb2
  store i32 %self, ptr %self.dbg.spill2, align 4, !dbg !3273
    #dbg_declare(ptr %self.dbg.spill2, !3264, !DIExpression(), !3274)
  %7 = sub i32 %self, 48, !dbg !3275
  store i32 %7, ptr %value, align 4, !dbg !3275
  br label %bb7, !dbg !3276

bb4:                                              ; preds = %bb2
  %_9 = icmp ugt i32 %radix, 10, !dbg !3277
  br i1 %_9, label %bb5, label %bb6, !dbg !3277

bb5:                                              ; preds = %bb4
  store i32 %self, ptr %self.dbg.spill3, align 4, !dbg !3278
    #dbg_declare(ptr %self.dbg.spill3, !3264, !DIExpression(), !3279)
  %_11 = sub i32 %self, 65, !dbg !3280
  %_10 = and i32 %_11, -33, !dbg !3281
  %8 = add i32 %_10, 10, !dbg !3281
  store i32 %8, ptr %value, align 4, !dbg !3281
  br label %bb7, !dbg !3276

bb7:                                              ; preds = %bb5, %bb6
  %_15 = load i32, ptr %value, align 4, !dbg !3282
  %_14 = icmp ult i32 %_15, %radix, !dbg !3282
  br i1 %_14, label %bb8, label %bb9, !dbg !3282

bb9:                                              ; preds = %bb7
  %9 = load i32, ptr @anon.284cfee5410ba401389a9c2a4c0ae086.3, align 4, !dbg !3283
  %10 = load i32, ptr getelementptr inbounds (i8, ptr @anon.284cfee5410ba401389a9c2a4c0ae086.3, i64 4), align 4, !dbg !3283
  store i32 %9, ptr %_0, align 4, !dbg !3283
  %11 = getelementptr inbounds i8, ptr %_0, i64 4, !dbg !3283
  store i32 %10, ptr %11, align 4, !dbg !3283
  br label %bb10, !dbg !3284

bb8:                                              ; preds = %bb7
  %_16 = load i32, ptr %value, align 4, !dbg !3285
  %12 = getelementptr inbounds i8, ptr %_0, i64 4, !dbg !3286
  store i32 %_16, ptr %12, align 4, !dbg !3286
  store i32 1, ptr %_0, align 4, !dbg !3286
  br label %bb10, !dbg !3284

bb10:                                             ; preds = %bb8, %bb9
  %13 = load i32, ptr %_0, align 4, !dbg !3287
  %14 = getelementptr inbounds i8, ptr %_0, i64 4, !dbg !3287
  %15 = load i32, ptr %14, align 4, !dbg !3287
  %16 = insertvalue { i32, i32 } poison, i32 %13, 0, !dbg !3287
  %17 = insertvalue { i32, i32 } %16, i32 %15, 1, !dbg !3287
  ret { i32, i32 } %17, !dbg !3287
}

; core::char::methods::encode_utf8_raw_unchecked
; Function Attrs: inlinehint uwtable
define internal void @_ZN4core4char7methods25encode_utf8_raw_unchecked17h13a0366423388d82E(i32 %code, ptr %dst) unnamed_addr #0 !dbg !3288 {
start:
  %count.dbg.spill5 = alloca [8 x i8], align 8
  %count.dbg.spill4 = alloca [8 x i8], align 8
  %count.dbg.spill3 = alloca [8 x i8], align 8
  %count.dbg.spill2 = alloca [8 x i8], align 8
  %count.dbg.spill1 = alloca [8 x i8], align 8
  %count.dbg.spill = alloca [8 x i8], align 8
  %dst.dbg.spill = alloca [8 x i8], align 8
  %code.dbg.spill = alloca [4 x i8], align 4
  %len = alloca [8 x i8], align 8
  store i32 %code, ptr %code.dbg.spill, align 4
    #dbg_declare(ptr %code.dbg.spill, !3292, !DIExpression(), !3296)
    #dbg_declare(ptr %code.dbg.spill, !3297, !DIExpression(), !3302)
  store ptr %dst, ptr %dst.dbg.spill, align 8
    #dbg_declare(ptr %dst.dbg.spill, !3293, !DIExpression(), !3304)
    #dbg_declare(ptr %dst.dbg.spill, !3305, !DIExpression(), !3309)
    #dbg_declare(ptr %dst.dbg.spill, !3305, !DIExpression(), !3311)
    #dbg_declare(ptr %dst.dbg.spill, !3305, !DIExpression(), !3313)
    #dbg_declare(ptr %dst.dbg.spill, !3305, !DIExpression(), !3315)
    #dbg_declare(ptr %dst.dbg.spill, !3305, !DIExpression(), !3317)
    #dbg_declare(ptr %dst.dbg.spill, !3305, !DIExpression(), !3319)
    #dbg_declare(ptr %len, !3294, !DIExpression(), !3321)
  store i64 1, ptr %count.dbg.spill, align 8, !dbg !3322
    #dbg_declare(ptr %count.dbg.spill, !3308, !DIExpression(), !3322)
  store i64 1, ptr %count.dbg.spill1, align 8, !dbg !3323
    #dbg_declare(ptr %count.dbg.spill1, !3308, !DIExpression(), !3323)
  store i64 1, ptr %count.dbg.spill2, align 8, !dbg !3324
    #dbg_declare(ptr %count.dbg.spill2, !3308, !DIExpression(), !3324)
  store i64 2, ptr %count.dbg.spill3, align 8, !dbg !3325
    #dbg_declare(ptr %count.dbg.spill3, !3308, !DIExpression(), !3325)
  store i64 2, ptr %count.dbg.spill4, align 8, !dbg !3326
    #dbg_declare(ptr %count.dbg.spill4, !3308, !DIExpression(), !3326)
  store i64 3, ptr %count.dbg.spill5, align 8, !dbg !3327
    #dbg_declare(ptr %count.dbg.spill5, !3308, !DIExpression(), !3327)
  %_34 = icmp ult i32 %code, 128, !dbg !3328
  br i1 %_34, label %bb7, label %bb2, !dbg !3328

bb2:                                              ; preds = %start
  %_35 = icmp ult i32 %code, 2048, !dbg !3329
  br i1 %_35, label %bb6, label %bb3, !dbg !3329

bb7:                                              ; preds = %start
  store i64 1, ptr %len, align 8, !dbg !3330
  %0 = trunc i32 %code to i8, !dbg !3331
  store i8 %0, ptr %dst, align 1, !dbg !3331
  br label %bb1, !dbg !3332

bb3:                                              ; preds = %bb2
  %_36 = icmp ult i32 %code, 65536, !dbg !3333
  br i1 %_36, label %bb5, label %bb4, !dbg !3333

bb6:                                              ; preds = %bb2
  store i64 2, ptr %len, align 8, !dbg !3334
  %_6 = lshr i32 %code, 6, !dbg !3335
  %_5 = and i32 %_6, 31, !dbg !3336
  %_4 = trunc i32 %_5 to i8, !dbg !3336
  %1 = or i8 %_4, -64, !dbg !3337
  store i8 %1, ptr %dst, align 1, !dbg !3337
  %_8 = and i32 %code, 63, !dbg !3338
  %_7 = trunc i32 %_8 to i8, !dbg !3338
  %_9 = getelementptr inbounds nuw i8, ptr %dst, i64 1, !dbg !3339
  %2 = or i8 %_7, -128, !dbg !3340
  store i8 %2, ptr %_9, align 1, !dbg !3340
  br label %bb1, !dbg !3341

bb4:                                              ; preds = %bb3
  store i64 4, ptr %len, align 8, !dbg !3342
  %_22 = lshr i32 %code, 18, !dbg !3343
  %_21 = and i32 %_22, 7, !dbg !3344
  %_20 = trunc i32 %_21 to i8, !dbg !3344
  %3 = or i8 %_20, -16, !dbg !3345
  store i8 %3, ptr %dst, align 1, !dbg !3345
  %_25 = lshr i32 %code, 12, !dbg !3346
  %_24 = and i32 %_25, 63, !dbg !3347
  %_23 = trunc i32 %_24 to i8, !dbg !3347
  %_26 = getelementptr inbounds nuw i8, ptr %dst, i64 1, !dbg !3348
  %4 = or i8 %_23, -128, !dbg !3349
  store i8 %4, ptr %_26, align 1, !dbg !3349
  %_29 = lshr i32 %code, 6, !dbg !3350
  %_28 = and i32 %_29, 63, !dbg !3351
  %_27 = trunc i32 %_28 to i8, !dbg !3351
  %_30 = getelementptr inbounds nuw i8, ptr %dst, i64 2, !dbg !3352
  %5 = or i8 %_27, -128, !dbg !3353
  store i8 %5, ptr %_30, align 1, !dbg !3353
  %_32 = and i32 %code, 63, !dbg !3354
  %_31 = trunc i32 %_32 to i8, !dbg !3354
  %_33 = getelementptr inbounds nuw i8, ptr %dst, i64 3, !dbg !3355
  %6 = or i8 %_31, -128, !dbg !3356
  store i8 %6, ptr %_33, align 1, !dbg !3356
  br label %bb1, !dbg !3357

bb5:                                              ; preds = %bb3
  store i64 3, ptr %len, align 8, !dbg !3358
  %_12 = lshr i32 %code, 12, !dbg !3359
  %_11 = and i32 %_12, 15, !dbg !3360
  %_10 = trunc i32 %_11 to i8, !dbg !3360
  %7 = or i8 %_10, -32, !dbg !3361
  store i8 %7, ptr %dst, align 1, !dbg !3361
  %_15 = lshr i32 %code, 6, !dbg !3362
  %_14 = and i32 %_15, 63, !dbg !3363
  %_13 = trunc i32 %_14 to i8, !dbg !3363
  %_16 = getelementptr inbounds nuw i8, ptr %dst, i64 1, !dbg !3364
  %8 = or i8 %_13, -128, !dbg !3365
  store i8 %8, ptr %_16, align 1, !dbg !3365
  %_18 = and i32 %code, 63, !dbg !3366
  %_17 = trunc i32 %_18 to i8, !dbg !3366
  %_19 = getelementptr inbounds nuw i8, ptr %dst, i64 2, !dbg !3367
  %9 = or i8 %_17, -128, !dbg !3368
  store i8 %9, ptr %_19, align 1, !dbg !3368
  br label %bb1, !dbg !3369

bb1:                                              ; preds = %bb7, %bb6, %bb5, %bb4
  ret void, !dbg !3370
}

; core::hint::unreachable_unchecked::precondition_check
; Function Attrs: inlinehint nounwind uwtable
define internal void @_ZN4core4hint21unreachable_unchecked18precondition_check17h0f418dd4a3220488E(ptr align 8 %0) unnamed_addr #4 !dbg !3371 {
start:
  %pieces.dbg.spill = alloca [8 x i8], align 8
  %msg.dbg.spill = alloca [16 x i8], align 8
  %_4 = alloca [16 x i8], align 8
  %_2 = alloca [48 x i8], align 8
  store ptr @alloc_75fb06c2453febd814e73f5f2e72ae38, ptr %msg.dbg.spill, align 8, !dbg !3376
  %1 = getelementptr inbounds i8, ptr %msg.dbg.spill, i64 8, !dbg !3376
  store i64 199, ptr %1, align 8, !dbg !3376
    #dbg_declare(ptr %msg.dbg.spill, !3374, !DIExpression(), !3376)
  %2 = getelementptr inbounds nuw { ptr, i64 }, ptr %_4, i64 0, !dbg !3377
  store ptr @alloc_75fb06c2453febd814e73f5f2e72ae38, ptr %2, align 8, !dbg !3377
  %3 = getelementptr inbounds i8, ptr %2, i64 8, !dbg !3377
  store i64 199, ptr %3, align 8, !dbg !3377
  store ptr %_4, ptr %pieces.dbg.spill, align 8, !dbg !3378
    #dbg_declare(ptr %pieces.dbg.spill, !3379, !DIExpression(), !3382)
  store ptr %_4, ptr %_2, align 8, !dbg !3384
  %4 = getelementptr inbounds i8, ptr %_2, i64 8, !dbg !3384
  store i64 1, ptr %4, align 8, !dbg !3384
  %5 = load ptr, ptr @anon.284cfee5410ba401389a9c2a4c0ae086.2, align 8, !dbg !3384
  %6 = load i64, ptr getelementptr inbounds (i8, ptr @anon.284cfee5410ba401389a9c2a4c0ae086.2, i64 8), align 8, !dbg !3384
  %7 = getelementptr inbounds i8, ptr %_2, i64 32, !dbg !3384
  store ptr %5, ptr %7, align 8, !dbg !3384
  %8 = getelementptr inbounds i8, ptr %7, i64 8, !dbg !3384
  store i64 %6, ptr %8, align 8, !dbg !3384
  %9 = getelementptr inbounds i8, ptr %_2, i64 16, !dbg !3384
  store ptr inttoptr (i64 8 to ptr), ptr %9, align 8, !dbg !3384
  %10 = getelementptr inbounds i8, ptr %9, i64 8, !dbg !3384
  store i64 0, ptr %10, align 8, !dbg !3384
; call core::panicking::panic_nounwind_fmt
  call void @_ZN4core9panicking18panic_nounwind_fmt17h5a0053aaf4374c47E(ptr align 8 %_2, i1 zeroext false, ptr align 8 %0) #18, !dbg !3385
  unreachable, !dbg !3385
}

; core::iter::traits::iterator::Iterator::fold
; Function Attrs: inlinehint uwtable
define internal void @_ZN4core4iter6traits8iterator8Iterator4fold17h16fd0e806322e069E(ptr align 8 %self, ptr align 8 %0) unnamed_addr #0 personality ptr @rust_eh_personality !dbg !3386 {
start:
  %x.dbg.spill = alloca [4 x i8], align 4
  %1 = alloca [16 x i8], align 8
  %accum.dbg.spill = alloca [0 x i8], align 1
  %init.dbg.spill = alloca [0 x i8], align 1
  %_13 = alloca [1 x i8], align 1
  %_5 = alloca [4 x i8], align 4
  %f = alloca [8 x i8], align 8
  store ptr %0, ptr %f, align 8
    #dbg_declare(ptr %self, !3410, !DIExpression(), !3421)
    #dbg_declare(ptr %init.dbg.spill, !3411, !DIExpression(), !3422)
    #dbg_declare(ptr %f, !3412, !DIExpression(), !3423)
    #dbg_declare(ptr %accum.dbg.spill, !3413, !DIExpression(), !3424)
  store i8 1, ptr %_13, align 1, !dbg !3425
  br label %bb1, !dbg !3426

bb1:                                              ; preds = %bb4, %start
; invoke <hex::BytesToHexChars as core::iter::traits::iterator::Iterator>::next
  %2 = invoke i32 @"_ZN79_$LT$hex..BytesToHexChars$u20$as$u20$core..iter..traits..iterator..Iterator$GT$4next17hb5426f6160965130E"(ptr align 8 %self)
          to label %bb2 unwind label %cleanup, !dbg !3427

bb13:                                             ; preds = %cleanup
  %3 = load i8, ptr %_13, align 1, !dbg !3428
  %4 = trunc nuw i8 %3 to i1, !dbg !3428
  br i1 %4, label %bb12, label %bb9, !dbg !3428

cleanup:                                          ; preds = %bb3, %bb1
  %5 = landingpad { ptr, i32 }
          cleanup
  %6 = extractvalue { ptr, i32 } %5, 0
  %7 = extractvalue { ptr, i32 } %5, 1
  store ptr %6, ptr %1, align 8
  %8 = getelementptr inbounds i8, ptr %1, i64 8
  store i32 %7, ptr %8, align 8
  br label %bb13

bb2:                                              ; preds = %bb1
  store i32 %2, ptr %_5, align 4, !dbg !3429
  %9 = load i32, ptr %_5, align 4, !dbg !3429
  %10 = icmp eq i32 %9, 1114112, !dbg !3429
  %_7 = select i1 %10, i64 0, i64 1, !dbg !3429
  %11 = trunc nuw i64 %_7 to i1, !dbg !3430
  br i1 %11, label %bb3, label %bb5, !dbg !3430

bb3:                                              ; preds = %bb2
  %x = load i32, ptr %_5, align 4, !dbg !3431
  store i32 %x, ptr %x.dbg.spill, align 4, !dbg !3431
    #dbg_declare(ptr %x.dbg.spill, !3415, !DIExpression(), !3431)
  store i8 0, ptr %_13, align 1, !dbg !3432
; invoke core::iter::traits::iterator::Iterator::for_each::call::{{closure}}
  invoke void @"_ZN4core4iter6traits8iterator8Iterator8for_each4call28_$u7b$$u7b$closure$u7d$$u7d$17h0caf43024868899dE"(ptr align 8 %f, i32 %x)
          to label %bb4 unwind label %cleanup, !dbg !3433

bb5:                                              ; preds = %bb2
  br label %bb6, !dbg !3434

bb4:                                              ; preds = %bb3
  store i8 1, ptr %_13, align 1, !dbg !3435
  br label %bb1, !dbg !3426

bb6:                                              ; preds = %bb5
  br label %bb7, !dbg !3428

bb7:                                              ; preds = %bb6
  ret void, !dbg !3436

bb14:                                             ; No predecessors!
  unreachable, !dbg !3437

bb9:                                              ; preds = %bb12, %bb13
  br label %bb10, !dbg !3428

bb12:                                             ; preds = %bb13
  br label %bb9, !dbg !3428

bb10:                                             ; preds = %bb9
  %12 = load ptr, ptr %1, align 8, !dbg !3437
  %13 = getelementptr inbounds i8, ptr %1, i64 8, !dbg !3437
  %14 = load i32, ptr %13, align 8, !dbg !3437
  %15 = insertvalue { ptr, i32 } poison, ptr %12, 0, !dbg !3437
  %16 = insertvalue { ptr, i32 } %15, i32 %14, 1, !dbg !3437
  resume { ptr, i32 } %16, !dbg !3437
}

; core::iter::traits::iterator::Iterator::collect
; Function Attrs: inlinehint uwtable
define internal void @_ZN4core4iter6traits8iterator8Iterator7collect17h6c84ba833e87a0d8E(ptr sret([24 x i8]) align 8 %_0, ptr align 8 %self) unnamed_addr #0 personality ptr @rust_eh_personality !dbg !3438 {
start:
  %0 = alloca [16 x i8], align 8
  %pieces.dbg.spill = alloca [8 x i8], align 8
  %_7 = alloca [32 x i8], align 8
    #dbg_declare(ptr %self, !3442, !DIExpression(), !3450)
  store ptr @alloc_4f957698b52dbe11fa953a525a47908f, ptr %pieces.dbg.spill, align 8, !dbg !3451
    #dbg_declare(ptr %pieces.dbg.spill, !3458, !DIExpression(), !3451)
  call void @llvm.memcpy.p0.p0.i64(ptr align 8 %_7, ptr align 8 %self, i64 32, i1 false), !dbg !3462
; invoke <alloc::string::String as core::iter::traits::collect::FromIterator<char>>::from_iter
  invoke void @"_ZN95_$LT$alloc..string..String$u20$as$u20$core..iter..traits..collect..FromIterator$LT$char$GT$$GT$9from_iter17h326e2af0c247a07bE"(ptr sret([24 x i8]) align 8 %_0, ptr align 8 %_7)
          to label %bb1 unwind label %cleanup, !dbg !3463

bb4:                                              ; preds = %cleanup
  br label %bb2, !dbg !3464

cleanup:                                          ; preds = %start
  %1 = landingpad { ptr, i32 }
          cleanup
  %2 = extractvalue { ptr, i32 } %1, 0
  %3 = extractvalue { ptr, i32 } %1, 1
  store ptr %2, ptr %0, align 8
  %4 = getelementptr inbounds i8, ptr %0, i64 8
  store i32 %3, ptr %4, align 8
  br label %bb4

bb1:                                              ; preds = %start
  ret void, !dbg !3465

bb2:                                              ; preds = %bb3, %bb4
  %5 = load ptr, ptr %0, align 8, !dbg !3466
  %6 = getelementptr inbounds i8, ptr %0, i64 8, !dbg !3466
  %7 = load i32, ptr %6, align 8, !dbg !3466
  %8 = insertvalue { ptr, i32 } poison, ptr %5, 0, !dbg !3466
  %9 = insertvalue { ptr, i32 } %8, i32 %7, 1, !dbg !3466
  resume { ptr, i32 } %9, !dbg !3466

bb3:                                              ; No predecessors!
  br label %bb2, !dbg !3464
}

; core::iter::traits::iterator::Iterator::step_by
; Function Attrs: inlinehint uwtable
define internal void @_ZN4core4iter6traits8iterator8Iterator7step_by17h643e416d973a3425E(ptr sret([32 x i8]) align 8 %_0, i64 %self.0, i64 %self.1, i64 %step) unnamed_addr #0 !dbg !3467 {
start:
  %step.dbg.spill = alloca [8 x i8], align 8
  %self.dbg.spill = alloca [16 x i8], align 8
  store i64 %self.0, ptr %self.dbg.spill, align 8
  %0 = getelementptr inbounds i8, ptr %self.dbg.spill, i64 8
  store i64 %self.1, ptr %0, align 8
    #dbg_declare(ptr %self.dbg.spill, !3471, !DIExpression(), !3475)
  store i64 %step, ptr %step.dbg.spill, align 8
    #dbg_declare(ptr %step.dbg.spill, !3472, !DIExpression(), !3476)
; call core::iter::adapters::step_by::StepBy<I>::new
  call void @"_ZN4core4iter8adapters7step_by15StepBy$LT$I$GT$3new17h0efe6b4adb0b321cE"(ptr sret([32 x i8]) align 8 %_0, i64 %self.0, i64 %self.1, i64 %step), !dbg !3477
  ret void, !dbg !3478
}

; core::iter::traits::iterator::Iterator::for_each
; Function Attrs: inlinehint uwtable
define internal void @_ZN4core4iter6traits8iterator8Iterator8for_each17h71e5bf5583acc74fE(ptr align 8 %self, ptr align 8 %f) unnamed_addr #0 !dbg !3479 {
start:
    #dbg_declare(ptr %self, !3483, !DIExpression(), !3487)
  %f.dbg.spill = alloca [8 x i8], align 8
  store ptr %f, ptr %f.dbg.spill, align 8
    #dbg_declare(ptr %f.dbg.spill, !3484, !DIExpression(), !3488)
    #dbg_declare(ptr %f.dbg.spill, !3489, !DIExpression(), !3496)
; call core::iter::traits::iterator::Iterator::fold
  call void @_ZN4core4iter6traits8iterator8Iterator4fold17h16fd0e806322e069E(ptr align 8 %self, ptr align 8 %f), !dbg !3498
  ret void, !dbg !3499
}

; core::iter::traits::iterator::Iterator::for_each::call::{{closure}}
; Function Attrs: inlinehint uwtable
define internal void @"_ZN4core4iter6traits8iterator8Iterator8for_each4call28_$u7b$$u7b$closure$u7d$$u7d$17h0caf43024868899dE"(ptr align 8 %_1, i32 %item) unnamed_addr #0 !dbg !3500 {
start:
  %item.dbg.spill = alloca [4 x i8], align 4
  %_2.dbg.spill = alloca [0 x i8], align 1
  %_1.dbg.spill = alloca [8 x i8], align 8
  store ptr %_1, ptr %_1.dbg.spill, align 8
    #dbg_declare(ptr %_1.dbg.spill, !3506, !DIExpression(DW_OP_deref), !3508)
    #dbg_declare(ptr %_2.dbg.spill, !3507, !DIExpression(), !3509)
  store i32 %item, ptr %item.dbg.spill, align 4
    #dbg_declare(ptr %item.dbg.spill, !3505, !DIExpression(), !3510)
; call <alloc::string::String as core::iter::traits::collect::Extend<char>>::extend::{{closure}}
  call void @"_ZN89_$LT$alloc..string..String$u20$as$u20$core..iter..traits..collect..Extend$LT$char$GT$$GT$6extend28_$u7b$$u7b$closure$u7d$$u7d$17h174c5aff73515059E"(ptr align 8 %_1, i32 %item), !dbg !3511
  ret void, !dbg !3512
}

; core::iter::adapters::step_by::StepBy<I>::new
; Function Attrs: inlinehint uwtable
define internal void @"_ZN4core4iter8adapters7step_by15StepBy$LT$I$GT$3new17h0efe6b4adb0b321cE"(ptr sret([32 x i8]) align 8 %_0, i64 %iter.0, i64 %iter.1, i64 %step) unnamed_addr #0 personality ptr @rust_eh_personality !dbg !3513 {
start:
  %iter.dbg.spill3 = alloca [16 x i8], align 8
  %0 = alloca [16 x i8], align 8
  %step.dbg.spill = alloca [8 x i8], align 8
  %iter.dbg.spill = alloca [16 x i8], align 8
  %_7 = alloca [1 x i8], align 1
  store i64 %iter.0, ptr %iter.dbg.spill, align 8
  %1 = getelementptr inbounds i8, ptr %iter.dbg.spill, i64 8
  store i64 %iter.1, ptr %1, align 8
    #dbg_declare(ptr %iter.dbg.spill, !3516, !DIExpression(), !3520)
  store i64 %step, ptr %step.dbg.spill, align 8
    #dbg_declare(ptr %step.dbg.spill, !3517, !DIExpression(), !3521)
  store i8 1, ptr %_7, align 1, !dbg !3522
  %2 = icmp eq i64 %step, 0, !dbg !3523
  br i1 %2, label %bb2, label %bb1, !dbg !3523

bb2:                                              ; preds = %start
; invoke core::panicking::panic
  invoke void @_ZN4core9panicking5panic17hb79faf060e3d4a3fE(ptr align 1 @alloc_4aead6e2018a46d0df208d5729447de7, i64 27, ptr align 8 @alloc_5ce1043ccea83a102e32bae087dcaf16) #17
          to label %unreachable unwind label %cleanup, !dbg !3522

bb1:                                              ; preds = %start
  store i8 0, ptr %_7, align 1, !dbg !3524
; invoke <core::ops::range::Range<usize> as core::iter::adapters::step_by::SpecRangeSetup<core::ops::range::Range<usize>>>::setup
  %3 = invoke { i64, i64 } @"_ZN146_$LT$core..ops..range..Range$LT$usize$GT$$u20$as$u20$core..iter..adapters..step_by..SpecRangeSetup$LT$core..ops..range..Range$LT$usize$GT$$GT$$GT$5setup17hfb8b5b5c5cf22d88E"(i64 %iter.0, i64 %iter.1, i64 %step)
          to label %bb3 unwind label %cleanup, !dbg !3525

bb6:                                              ; preds = %cleanup
  %4 = load i8, ptr %_7, align 1, !dbg !3526
  %5 = trunc nuw i8 %4 to i1, !dbg !3526
  br i1 %5, label %bb5, label %bb4, !dbg !3526

cleanup:                                          ; preds = %bb1, %bb2
  %6 = landingpad { ptr, i32 }
          cleanup
  %7 = extractvalue { ptr, i32 } %6, 0
  %8 = extractvalue { ptr, i32 } %6, 1
  store ptr %7, ptr %0, align 8
  %9 = getelementptr inbounds i8, ptr %0, i64 8
  store i32 %8, ptr %9, align 8
  br label %bb6

unreachable:                                      ; preds = %bb2
  unreachable

bb3:                                              ; preds = %bb1
  %iter.01 = extractvalue { i64, i64 } %3, 0, !dbg !3525
  %iter.12 = extractvalue { i64, i64 } %3, 1, !dbg !3525
  store i64 %iter.01, ptr %iter.dbg.spill3, align 8, !dbg !3525
  %10 = getelementptr inbounds i8, ptr %iter.dbg.spill3, i64 8, !dbg !3525
  store i64 %iter.12, ptr %10, align 8, !dbg !3525
    #dbg_declare(ptr %iter.dbg.spill3, !3518, !DIExpression(), !3527)
  %_6 = sub i64 %step, 1, !dbg !3528
  store i64 %iter.01, ptr %_0, align 8, !dbg !3529
  %11 = getelementptr inbounds i8, ptr %_0, i64 8, !dbg !3529
  store i64 %iter.12, ptr %11, align 8, !dbg !3529
  %12 = getelementptr inbounds i8, ptr %_0, i64 16, !dbg !3529
  store i64 %_6, ptr %12, align 8, !dbg !3529
  %13 = getelementptr inbounds i8, ptr %_0, i64 24, !dbg !3529
  store i8 1, ptr %13, align 8, !dbg !3529
  ret void, !dbg !3530

bb4:                                              ; preds = %bb5, %bb6
  %14 = load ptr, ptr %0, align 8, !dbg !3531
  %15 = getelementptr inbounds i8, ptr %0, i64 8, !dbg !3531
  %16 = load i32, ptr %15, align 8, !dbg !3531
  %17 = insertvalue { ptr, i32 } poison, ptr %14, 0, !dbg !3531
  %18 = insertvalue { ptr, i32 } %17, i32 %16, 1, !dbg !3531
  resume { ptr, i32 } %18, !dbg !3531

bb5:                                              ; preds = %bb6
  br label %bb4, !dbg !3526
}

; core::alloc::layout::Layout::from_size_align_unchecked::precondition_check
; Function Attrs: inlinehint nounwind uwtable
define internal void @_ZN4core5alloc6layout6Layout25from_size_align_unchecked18precondition_check17hc0ff7faaec9df44bE(i64 %size, i64 %align, ptr align 8 %0) unnamed_addr #4 personality ptr @rust_eh_personality !dbg !3532 {
start:
  %pieces.dbg.spill = alloca [8 x i8], align 8
  %msg.dbg.spill = alloca [16 x i8], align 8
  %align.dbg.spill = alloca [8 x i8], align 8
  %size.dbg.spill = alloca [8 x i8], align 8
  %_7 = alloca [16 x i8], align 8
  %_5 = alloca [48 x i8], align 8
  store i64 %size, ptr %size.dbg.spill, align 8
    #dbg_declare(ptr %size.dbg.spill, !3540, !DIExpression(), !3544)
  store i64 %align, ptr %align.dbg.spill, align 8
    #dbg_declare(ptr %align.dbg.spill, !3541, !DIExpression(), !3544)
  store ptr @alloc_1be5ea12ba708d9a11b6e93a7d387a75, ptr %msg.dbg.spill, align 8, !dbg !3545
  %1 = getelementptr inbounds i8, ptr %msg.dbg.spill, i64 8, !dbg !3545
  store i64 281, ptr %1, align 8, !dbg !3545
    #dbg_declare(ptr %msg.dbg.spill, !3542, !DIExpression(), !3545)
; invoke core::alloc::layout::Layout::is_size_align_valid
  %_3 = invoke zeroext i1 @_ZN4core5alloc6layout6Layout19is_size_align_valid17h70712d6ecd147aeeE(i64 %size, i64 %align)
          to label %bb1 unwind label %terminate, !dbg !3546

terminate:                                        ; preds = %start
  %2 = landingpad { ptr, i32 }
          filter [0 x ptr] zeroinitializer
  %3 = extractvalue { ptr, i32 } %2, 0
  %4 = extractvalue { ptr, i32 } %2, 1
; call core::panicking::panic_cannot_unwind
  call void @_ZN4core9panicking19panic_cannot_unwind17ha55c49baaa44401fE() #16, !dbg !3549
  unreachable, !dbg !3549

bb1:                                              ; preds = %start
  br i1 %_3, label %bb2, label %bb3, !dbg !3546

bb3:                                              ; preds = %bb1
  %5 = getelementptr inbounds nuw { ptr, i64 }, ptr %_7, i64 0, !dbg !3550
  store ptr @alloc_1be5ea12ba708d9a11b6e93a7d387a75, ptr %5, align 8, !dbg !3550
  %6 = getelementptr inbounds i8, ptr %5, i64 8, !dbg !3550
  store i64 281, ptr %6, align 8, !dbg !3550
  store ptr %_7, ptr %pieces.dbg.spill, align 8, !dbg !3551
    #dbg_declare(ptr %pieces.dbg.spill, !3552, !DIExpression(), !3555)
  store ptr %_7, ptr %_5, align 8, !dbg !3557
  %7 = getelementptr inbounds i8, ptr %_5, i64 8, !dbg !3557
  store i64 1, ptr %7, align 8, !dbg !3557
  %8 = load ptr, ptr @anon.284cfee5410ba401389a9c2a4c0ae086.2, align 8, !dbg !3557
  %9 = load i64, ptr getelementptr inbounds (i8, ptr @anon.284cfee5410ba401389a9c2a4c0ae086.2, i64 8), align 8, !dbg !3557
  %10 = getelementptr inbounds i8, ptr %_5, i64 32, !dbg !3557
  store ptr %8, ptr %10, align 8, !dbg !3557
  %11 = getelementptr inbounds i8, ptr %10, i64 8, !dbg !3557
  store i64 %9, ptr %11, align 8, !dbg !3557
  %12 = getelementptr inbounds i8, ptr %_5, i64 16, !dbg !3557
  store ptr inttoptr (i64 8 to ptr), ptr %12, align 8, !dbg !3557
  %13 = getelementptr inbounds i8, ptr %12, i64 8, !dbg !3557
  store i64 0, ptr %13, align 8, !dbg !3557
; call core::panicking::panic_nounwind_fmt
  call void @_ZN4core9panicking18panic_nounwind_fmt17h5a0053aaf4374c47E(ptr align 8 %_5, i1 zeroext false, ptr align 8 %0) #18, !dbg !3558
  unreachable, !dbg !3558

bb2:                                              ; preds = %bb1
  ret void, !dbg !3559
}

; core::slice::raw::from_raw_parts::precondition_check
; Function Attrs: inlinehint nounwind uwtable
define internal void @_ZN4core5slice3raw14from_raw_parts18precondition_check17h83980498f60c3f23E(ptr %data, i64 %size, i64 %align, i64 %len, ptr align 8 %0) unnamed_addr #4 personality ptr @rust_eh_personality !dbg !3560 {
start:
  %pieces.dbg.spill2 = alloca [8 x i8], align 8
  %1 = alloca [4 x i8], align 4
  %ptr.dbg.spill = alloca [8 x i8], align 8
  %pieces.dbg.spill = alloca [8 x i8], align 8
  %is_zst.dbg.spill1 = alloca [1 x i8], align 1
  %is_zst.dbg.spill = alloca [1 x i8], align 1
  %msg.dbg.spill = alloca [16 x i8], align 8
  %len.dbg.spill = alloca [8 x i8], align 8
  %align.dbg.spill = alloca [8 x i8], align 8
  %size.dbg.spill = alloca [8 x i8], align 8
  %data.dbg.spill = alloca [8 x i8], align 8
  %max_len = alloca [8 x i8], align 8
  %_14 = alloca [48 x i8], align 8
  %_11 = alloca [16 x i8], align 8
  %_9 = alloca [48 x i8], align 8
  store ptr %data, ptr %data.dbg.spill, align 8
    #dbg_declare(ptr %data.dbg.spill, !3566, !DIExpression(), !3572)
  store i64 %size, ptr %size.dbg.spill, align 8
    #dbg_declare(ptr %size.dbg.spill, !3567, !DIExpression(), !3572)
    #dbg_declare(ptr %size.dbg.spill, !3573, !DIExpression(), !3582)
  store i64 %align, ptr %align.dbg.spill, align 8
    #dbg_declare(ptr %align.dbg.spill, !3568, !DIExpression(), !3572)
    #dbg_declare(ptr %align.dbg.spill, !3586, !DIExpression(), !3593)
    #dbg_declare(ptr %align.dbg.spill, !3595, !DIExpression(), !3601)
    #dbg_declare(ptr %align.dbg.spill, !3604, !DIExpression(), !3610)
    #dbg_declare(ptr %align.dbg.spill, !3613, !DIExpression(), !3618)
    #dbg_declare(ptr %align.dbg.spill, !3620, !DIExpression(), !3625)
  store i64 %len, ptr %len.dbg.spill, align 8
    #dbg_declare(ptr %len.dbg.spill, !3569, !DIExpression(), !3572)
    #dbg_declare(ptr %len.dbg.spill, !3579, !DIExpression(), !3627)
    #dbg_declare(ptr %max_len, !3580, !DIExpression(), !3628)
  store ptr @alloc_a28e8c8fd5088943a8b5d44af697ff83, ptr %msg.dbg.spill, align 8, !dbg !3629
  %2 = getelementptr inbounds i8, ptr %msg.dbg.spill, i64 8, !dbg !3629
  store i64 279, ptr %2, align 8, !dbg !3629
    #dbg_declare(ptr %msg.dbg.spill, !3570, !DIExpression(), !3629)
  store i8 0, ptr %is_zst.dbg.spill, align 1, !dbg !3630
    #dbg_declare(ptr %is_zst.dbg.spill, !3592, !DIExpression(), !3630)
  store i8 0, ptr %is_zst.dbg.spill1, align 1, !dbg !3601
    #dbg_declare(ptr %is_zst.dbg.spill1, !3600, !DIExpression(), !3601)
  store ptr @alloc_e92e94d0ff530782b571cfd99ec66aef, ptr %pieces.dbg.spill, align 8, !dbg !3631
    #dbg_declare(ptr %pieces.dbg.spill, !3634, !DIExpression(), !3631)
  store ptr %data, ptr %ptr.dbg.spill, align 8, !dbg !3637
    #dbg_declare(ptr %ptr.dbg.spill, !3591, !DIExpression(), !3638)
    #dbg_declare(ptr %ptr.dbg.spill, !3599, !DIExpression(), !3601)
    #dbg_declare(ptr %ptr.dbg.spill, !3609, !DIExpression(), !3639)
    #dbg_declare(ptr %ptr.dbg.spill, !3640, !DIExpression(), !3645)
    #dbg_declare(ptr %ptr.dbg.spill, !3647, !DIExpression(), !3653)
    #dbg_declare(ptr %ptr.dbg.spill, !3655, !DIExpression(), !3658)
  %3 = call i64 @llvm.ctpop.i64(i64 %align), !dbg !3660
  %4 = trunc i64 %3 to i32, !dbg !3660
  store i32 %4, ptr %1, align 4, !dbg !3660
  %_18 = load i32, ptr %1, align 4, !dbg !3660
  %5 = icmp eq i32 %_18, 1, !dbg !3661
  br i1 %5, label %bb8, label %bb9, !dbg !3661

bb8:                                              ; preds = %start
  %_16 = ptrtoint ptr %data to i64, !dbg !3662
  %_17 = sub i64 %align, 1, !dbg !3663
  %_15 = and i64 %_16, %_17, !dbg !3664
  %6 = icmp eq i64 %_15, 0, !dbg !3665
  br i1 %6, label %bb6, label %bb7, !dbg !3665

bb9:                                              ; preds = %start
  store ptr @alloc_e92e94d0ff530782b571cfd99ec66aef, ptr %_14, align 8, !dbg !3666
  %7 = getelementptr inbounds i8, ptr %_14, i64 8, !dbg !3666
  store i64 1, ptr %7, align 8, !dbg !3666
  %8 = load ptr, ptr @anon.284cfee5410ba401389a9c2a4c0ae086.2, align 8, !dbg !3666
  %9 = load i64, ptr getelementptr inbounds (i8, ptr @anon.284cfee5410ba401389a9c2a4c0ae086.2, i64 8), align 8, !dbg !3666
  %10 = getelementptr inbounds i8, ptr %_14, i64 32, !dbg !3666
  store ptr %8, ptr %10, align 8, !dbg !3666
  %11 = getelementptr inbounds i8, ptr %10, i64 8, !dbg !3666
  store i64 %9, ptr %11, align 8, !dbg !3666
  %12 = getelementptr inbounds i8, ptr %_14, i64 16, !dbg !3666
  store ptr inttoptr (i64 8 to ptr), ptr %12, align 8, !dbg !3666
  %13 = getelementptr inbounds i8, ptr %12, i64 8, !dbg !3666
  store i64 0, ptr %13, align 8, !dbg !3666
; invoke core::panicking::panic_fmt
  invoke void @_ZN4core9panicking9panic_fmt17hd8bd6cb86ff62669E(ptr align 8 %_14, ptr align 8 @alloc_73c96d63ab00c43d552394ddc40e7dcf) #17
          to label %unreachable unwind label %terminate, !dbg !3636

bb6:                                              ; preds = %bb8
  %_12 = icmp eq i64 %_16, 0, !dbg !3667
  %_5 = xor i1 %_12, true, !dbg !3673
  br i1 %_5, label %bb1, label %bb4, !dbg !3594

bb7:                                              ; preds = %bb8
  br label %bb4, !dbg !3594

bb4:                                              ; preds = %bb7, %bb6
  br label %bb5, !dbg !3674

bb1:                                              ; preds = %bb6
  %_22 = icmp eq i64 %size, 0, !dbg !3676
  %14 = icmp eq i64 %size, 0, !dbg !3676
  br i1 %14, label %bb11, label %bb12, !dbg !3676

bb11:                                             ; preds = %bb1
  store i64 -1, ptr %max_len, align 8, !dbg !3677
  br label %bb14, !dbg !3678

bb12:                                             ; preds = %bb1
  br i1 %_22, label %panic, label %bb13, !dbg !3679

bb14:                                             ; preds = %bb13, %bb11
  %_23 = load i64, ptr %max_len, align 8, !dbg !3680
  %_7 = icmp ule i64 %len, %_23, !dbg !3681
  br i1 %_7, label %bb2, label %bb3, !dbg !3583

bb13:                                             ; preds = %bb12
  %15 = udiv i64 9223372036854775807, %size, !dbg !3679
  store i64 %15, ptr %max_len, align 8, !dbg !3679
  br label %bb14, !dbg !3678

panic:                                            ; preds = %bb12
; invoke core::panicking::panic_const::panic_const_div_by_zero
  invoke void @_ZN4core9panicking11panic_const23panic_const_div_by_zero17hf5b5fda6932225fbE(ptr align 8 @alloc_894f5487c139c7273933c82c8b5828a8) #17
          to label %unreachable unwind label %terminate, !dbg !3679

terminate:                                        ; preds = %bb9, %panic
  %16 = landingpad { ptr, i32 }
          filter [0 x ptr] zeroinitializer
  %17 = extractvalue { ptr, i32 } %16, 0
  %18 = extractvalue { ptr, i32 } %16, 1
; call core::panicking::panic_cannot_unwind
  call void @_ZN4core9panicking19panic_cannot_unwind17ha55c49baaa44401fE() #16, !dbg !3682
  unreachable, !dbg !3682

unreachable:                                      ; preds = %bb9, %panic
  unreachable

bb3:                                              ; preds = %bb14
  br label %bb5, !dbg !3674

bb2:                                              ; preds = %bb14
  ret void, !dbg !3683

bb5:                                              ; preds = %bb4, %bb3
  %19 = getelementptr inbounds nuw { ptr, i64 }, ptr %_11, i64 0, !dbg !3684
  store ptr @alloc_a28e8c8fd5088943a8b5d44af697ff83, ptr %19, align 8, !dbg !3684
  %20 = getelementptr inbounds i8, ptr %19, i64 8, !dbg !3684
  store i64 279, ptr %20, align 8, !dbg !3684
  store ptr %_11, ptr %pieces.dbg.spill2, align 8, !dbg !3685
    #dbg_declare(ptr %pieces.dbg.spill2, !3635, !DIExpression(), !3686)
  store ptr %_11, ptr %_9, align 8, !dbg !3688
  %21 = getelementptr inbounds i8, ptr %_9, i64 8, !dbg !3688
  store i64 1, ptr %21, align 8, !dbg !3688
  %22 = load ptr, ptr @anon.284cfee5410ba401389a9c2a4c0ae086.2, align 8, !dbg !3688
  %23 = load i64, ptr getelementptr inbounds (i8, ptr @anon.284cfee5410ba401389a9c2a4c0ae086.2, i64 8), align 8, !dbg !3688
  %24 = getelementptr inbounds i8, ptr %_9, i64 32, !dbg !3688
  store ptr %22, ptr %24, align 8, !dbg !3688
  %25 = getelementptr inbounds i8, ptr %24, i64 8, !dbg !3688
  store i64 %23, ptr %25, align 8, !dbg !3688
  %26 = getelementptr inbounds i8, ptr %_9, i64 16, !dbg !3688
  store ptr inttoptr (i64 8 to ptr), ptr %26, align 8, !dbg !3688
  %27 = getelementptr inbounds i8, ptr %26, i64 8, !dbg !3688
  store i64 0, ptr %27, align 8, !dbg !3688
; call core::panicking::panic_nounwind_fmt
  call void @_ZN4core9panicking18panic_nounwind_fmt17h5a0053aaf4374c47E(ptr align 8 %_9, i1 zeroext false, ptr align 8 %0) #18, !dbg !3689
  unreachable, !dbg !3689
}

; core::unicode::unicode_data::white_space::lookup
; Function Attrs: inlinehint uwtable
define internal zeroext i1 @_ZN4core7unicode12unicode_data11white_space6lookup17h169dbd3aed5d916eE(i32 %c) unnamed_addr #0 !dbg !3690 {
start:
  %c.dbg.spill = alloca [4 x i8], align 4
  %_0 = alloca [1 x i8], align 1
  store i32 %c, ptr %c.dbg.spill, align 4
    #dbg_declare(ptr %c.dbg.spill, !3696, !DIExpression(), !3697)
  %_2 = lshr i32 %c, 8, !dbg !3698
  switch i32 %_2, label %bb1 [
    i32 0, label %bb5
    i32 22, label %bb4
    i32 32, label %bb3
    i32 48, label %bb2
  ], !dbg !3699

bb1:                                              ; preds = %start
  store i8 0, ptr %_0, align 1, !dbg !3700
  br label %bb8, !dbg !3700

bb5:                                              ; preds = %start
  %_8 = zext i32 %c to i64, !dbg !3701
  %_7 = and i64 %_8, 255, !dbg !3701
  %_9 = icmp ult i64 %_7, 256, !dbg !3702
  br i1 %_9, label %bb6, label %panic, !dbg !3702

bb4:                                              ; preds = %start
  %0 = icmp eq i32 %c, 5760, !dbg !3703
  %1 = zext i1 %0 to i8, !dbg !3703
  store i8 %1, ptr %_0, align 1, !dbg !3703
  br label %bb8, !dbg !3704

bb3:                                              ; preds = %start
  %_14 = zext i32 %c to i64, !dbg !3705
  %_13 = and i64 %_14, 255, !dbg !3705
  %_15 = icmp ult i64 %_13, 256, !dbg !3706
  br i1 %_15, label %bb7, label %panic1, !dbg !3706

bb2:                                              ; preds = %start
  %2 = icmp eq i32 %c, 12288, !dbg !3707
  %3 = zext i1 %2 to i8, !dbg !3707
  store i8 %3, ptr %_0, align 1, !dbg !3707
  br label %bb8, !dbg !3708

bb6:                                              ; preds = %bb5
  %4 = getelementptr inbounds nuw i8, ptr @_ZN4core7unicode12unicode_data11white_space14WHITESPACE_MAP17hb8e2f8fd6910b1d1E, i64 %_7, !dbg !3702
  %_5 = load i8, ptr %4, align 1, !dbg !3702
  %_4 = and i8 %_5, 1, !dbg !3702
  %5 = icmp ne i8 %_4, 0, !dbg !3702
  %6 = zext i1 %5 to i8, !dbg !3702
  store i8 %6, ptr %_0, align 1, !dbg !3702
  br label %bb8, !dbg !3709

panic:                                            ; preds = %bb5
; call core::panicking::panic_bounds_check
  call void @_ZN4core9panicking18panic_bounds_check17h784b038fd17bdd2eE(i64 %_7, i64 256, ptr align 8 @alloc_8819fb4cd4ece387a35f2db602d2d32c) #17, !dbg !3702
  unreachable, !dbg !3702

bb8:                                              ; preds = %bb1, %bb2, %bb7, %bb4, %bb6
  %7 = load i8, ptr %_0, align 1, !dbg !3710
  %8 = trunc nuw i8 %7 to i1, !dbg !3710
  ret i1 %8, !dbg !3710

bb7:                                              ; preds = %bb3
  %9 = getelementptr inbounds nuw i8, ptr @_ZN4core7unicode12unicode_data11white_space14WHITESPACE_MAP17hb8e2f8fd6910b1d1E, i64 %_13, !dbg !3706
  %_11 = load i8, ptr %9, align 1, !dbg !3706
  %_10 = and i8 %_11, 2, !dbg !3706
  %10 = icmp ne i8 %_10, 0, !dbg !3706
  %11 = zext i1 %10 to i8, !dbg !3706
  store i8 %11, ptr %_0, align 1, !dbg !3706
  br label %bb8, !dbg !3711

panic1:                                           ; preds = %bb3
; call core::panicking::panic_bounds_check
  call void @_ZN4core9panicking18panic_bounds_check17h784b038fd17bdd2eE(i64 %_13, i64 256, ptr align 8 @alloc_6daee2d128c05c46d3fd67bc526326f8) #17, !dbg !3706
  unreachable, !dbg !3706
}

; <F as core::str::pattern::MultiCharEq>::matches
; Function Attrs: inlinehint uwtable
define internal zeroext i1 @"_ZN53_$LT$F$u20$as$u20$core..str..pattern..MultiCharEq$GT$7matches17hf9d619841f24538aE"(ptr align 1 %self, i32 %c) unnamed_addr #0 !dbg !3712 {
start:
  %c.dbg.spill = alloca [4 x i8], align 4
  %self.dbg.spill = alloca [8 x i8], align 8
  store ptr %self, ptr %self.dbg.spill, align 8
    #dbg_declare(ptr %self.dbg.spill, !3715, !DIExpression(), !3717)
  store i32 %c, ptr %c.dbg.spill, align 4
    #dbg_declare(ptr %c.dbg.spill, !3716, !DIExpression(), !3718)
; call core::ops::function::FnMut::call_mut
  %_0 = call zeroext i1 @_ZN4core3ops8function5FnMut8call_mut17ha6d6432a958137deE(ptr align 1 %self, i32 %c), !dbg !3719
  ret i1 %_0, !dbg !3720
}

; <() as std::process::Termination>::report
; Function Attrs: inlinehint uwtable
define internal i32 @"_ZN54_$LT$$LP$$RP$$u20$as$u20$std..process..Termination$GT$6report17hbd266a2acca44e9eE"() unnamed_addr #0 !dbg !3721 {
start:
  %_1.dbg.spill = alloca [0 x i8], align 1
    #dbg_declare(ptr %_1.dbg.spill, !3726, !DIExpression(), !3727)
  ret i32 0, !dbg !3728
}

; <&T as core::convert::AsRef<U>>::as_ref
; Function Attrs: inlinehint uwtable
define internal { ptr, i64 } @"_ZN55_$LT$$RF$T$u20$as$u20$core..convert..AsRef$LT$U$GT$$GT$6as_ref17h5b64ed187921a57dE"(ptr align 8 %self) unnamed_addr #0 !dbg !3729 {
start:
  %self.dbg.spill = alloca [8 x i8], align 8
  store ptr %self, ptr %self.dbg.spill, align 8
    #dbg_declare(ptr %self.dbg.spill, !3735, !DIExpression(), !3739)
  %_2.0 = load ptr, ptr %self, align 8, !dbg !3740
  %0 = getelementptr inbounds i8, ptr %self, i64 8, !dbg !3740
  %_2.1 = load i64, ptr %0, align 8, !dbg !3740
; call <std::path::Path as core::convert::AsRef<std::path::Path>>::as_ref
  %1 = call { ptr, i64 } @"_ZN79_$LT$std..path..Path$u20$as$u20$core..convert..AsRef$LT$std..path..Path$GT$$GT$6as_ref17h38690afe77e3d4f3E"(ptr align 1 %_2.0, i64 %_2.1), !dbg !3741
  %_0.0 = extractvalue { ptr, i64 } %1, 0, !dbg !3741
  %_0.1 = extractvalue { ptr, i64 } %1, 1, !dbg !3741
  %2 = insertvalue { ptr, i64 } poison, ptr %_0.0, 0, !dbg !3742
  %3 = insertvalue { ptr, i64 } %2, i64 %_0.1, 1, !dbg !3742
  ret { ptr, i64 } %3, !dbg !3742
}

; <&T as core::convert::AsRef<U>>::as_ref
; Function Attrs: inlinehint uwtable
define internal { ptr, i64 } @"_ZN55_$LT$$RF$T$u20$as$u20$core..convert..AsRef$LT$U$GT$$GT$6as_ref17h96ea603c91923d69E"(ptr align 8 %self) unnamed_addr #0 !dbg !3743 {
start:
  %self.dbg.spill = alloca [8 x i8], align 8
  store ptr %self, ptr %self.dbg.spill, align 8
    #dbg_declare(ptr %self.dbg.spill, !3747, !DIExpression(), !3749)
  %_2.0 = load ptr, ptr %self, align 8, !dbg !3750
  %0 = getelementptr inbounds i8, ptr %self, i64 8, !dbg !3750
  %_2.1 = load i64, ptr %0, align 8, !dbg !3750
; call std::path::<impl core::convert::AsRef<std::path::Path> for str>::as_ref
  %1 = call { ptr, i64 } @"_ZN3std4path77_$LT$impl$u20$core..convert..AsRef$LT$std..path..Path$GT$$u20$for$u20$str$GT$6as_ref17h35280cdaf5adbbb1E"(ptr align 1 %_2.0, i64 %_2.1), !dbg !3751
  %_0.0 = extractvalue { ptr, i64 } %1, 0, !dbg !3751
  %_0.1 = extractvalue { ptr, i64 } %1, 1, !dbg !3751
  %2 = insertvalue { ptr, i64 } poison, ptr %_0.0, 0, !dbg !3752
  %3 = insertvalue { ptr, i64 } %2, i64 %_0.1, 1, !dbg !3752
  ret { ptr, i64 } %3, !dbg !3752
}

; <&T as core::convert::AsRef<U>>::as_ref
; Function Attrs: inlinehint uwtable
define internal { ptr, i64 } @"_ZN55_$LT$$RF$T$u20$as$u20$core..convert..AsRef$LT$U$GT$$GT$6as_ref17hd60baf41035cad5aE"(ptr align 8 %self) unnamed_addr #0 !dbg !3753 {
start:
  %self.dbg.spill = alloca [8 x i8], align 8
  store ptr %self, ptr %self.dbg.spill, align 8
    #dbg_declare(ptr %self.dbg.spill, !3757, !DIExpression(), !3759)
  %_2.0 = load ptr, ptr %self, align 8, !dbg !3760
  %0 = getelementptr inbounds i8, ptr %self, i64 8, !dbg !3760
  %_2.1 = load i64, ptr %0, align 8, !dbg !3760
; call core::str::<impl core::convert::AsRef<[u8]> for str>::as_ref
  %1 = call { ptr, i64 } @"_ZN4core3str74_$LT$impl$u20$core..convert..AsRef$LT$$u5b$u8$u5d$$GT$$u20$for$u20$str$GT$6as_ref17h96b56b63acb52909E"(ptr align 1 %_2.0, i64 %_2.1), !dbg !3761
  %_0.0 = extractvalue { ptr, i64 } %1, 0, !dbg !3761
  %_0.1 = extractvalue { ptr, i64 } %1, 1, !dbg !3761
  %2 = insertvalue { ptr, i64 } poison, ptr %_0.0, 0, !dbg !3762
  %3 = insertvalue { ptr, i64 } %2, i64 %_0.1, 1, !dbg !3762
  ret { ptr, i64 } %3, !dbg !3762
}

; alloc::vec::Vec<T>::new
; Function Attrs: inlinehint uwtable
define internal void @"_ZN5alloc3vec12Vec$LT$T$GT$3new17h1ea95ef5e1d0df00E"(ptr sret([24 x i8]) align 8 %_0) unnamed_addr #0 !dbg !3763 {
start:
  store i64 0, ptr %_0, align 8, !dbg !3768
  %0 = getelementptr inbounds i8, ptr %_0, i64 8, !dbg !3768
  store ptr getelementptr (i8, ptr null, i64 1), ptr %0, align 8, !dbg !3768
  %1 = getelementptr inbounds i8, ptr %_0, i64 16, !dbg !3768
  store i64 0, ptr %1, align 8, !dbg !3768
  ret void, !dbg !3769
}

; alloc::string::String::len
; Function Attrs: inlinehint uwtable
define internal i64 @_ZN5alloc6string6String3len17h85cb7debc33a4ef9E(ptr align 8 %self) unnamed_addr #0 !dbg !3770 {
start:
  %self.dbg.spill = alloca [8 x i8], align 8
  store ptr %self, ptr %self.dbg.spill, align 8
